; Listing generated by Microsoft (R) Optimizing Compiler Version 19.00.24215.1 

	TITLE	D:\VisualStudio_Projects\qtres2dox\qtres2dox\GeneratedFiles\Release\moc_DoxygenExport.cpp
	.686P
	.XMM
	include listing.inc
	.model	flat

INCLUDELIB MSVCRT
INCLUDELIB OLDNAMES

EXTRN	__imp_?staticMetaObject@QDialog@@2UQMetaObject@@B:BYTE
CONST	SEGMENT
?qt_meta_stringdata_DoxygenExport@@3Uqt_meta_stringdata_DoxygenExport_t@@B DD 0ffffffffH ; qt_meta_stringdata_DoxygenExport
	DD	0dH
	DD	00H
	DD	040H
	DD	0ffffffffH
	DD	01fH
	DD	00H
	DD	03eH
	DD	0ffffffffH
	DD	00H
	DD	00H
	DD	04eH
	DD	0ffffffffH
	DD	020H
	DD	00H
	DD	03fH
	DB	'DoxygenExport', 00H, 'on_btnSelectImageFolder_clicked', 00H
	DB	00H, 'on_btnSelectDoxyFileName_clicked', 00H
?qt_meta_data_DoxygenExport@@3QBIB DD 07H		; qt_meta_data_DoxygenExport
	DD	00H
	DD	00H
	DD	00H
	DD	02H
	DD	0eH
	DD	00H
	DD	00H
	DD	00H
	DD	00H
	DD	00H
	DD	00H
	DD	00H
	DD	00H
	DD	01H
	DD	00H
	DD	018H
	DD	02H
	DD	08H
	DD	03H
	DD	00H
	DD	019H
	DD	02H
	DD	08H
	DD	02bH
	DD	02bH
	DD	00H
CONST	ENDS
PUBLIC	?metaObject@DoxygenExport@@UBEPBUQMetaObject@@XZ ; DoxygenExport::metaObject
PUBLIC	?qt_metacast@DoxygenExport@@UAEPAXPBD@Z		; DoxygenExport::qt_metacast
PUBLIC	?qt_metacall@DoxygenExport@@UAEHW4Call@QMetaObject@@HPAPAX@Z ; DoxygenExport::qt_metacall
PUBLIC	?qt_static_metacall@DoxygenExport@@CAXPAVQObject@@W4Call@QMetaObject@@HPAPAX@Z ; DoxygenExport::qt_static_metacall
PUBLIC	?staticMetaObject@DoxygenExport@@2UQMetaObject@@B ; DoxygenExport::staticMetaObject
EXTRN	__imp_?dynamicMetaObject@QObjectData@@QBEPAUQMetaObject@@XZ:PROC
EXTRN	__imp_?qt_metacast@QDialog@@UAEPAXPBD@Z:PROC
EXTRN	__imp_?qt_metacall@QDialog@@UAEHW4Call@QMetaObject@@HPAPAX@Z:PROC
EXTRN	?on_btnSelectImageFolder_clicked@DoxygenExport@@AAEXXZ:PROC ; DoxygenExport::on_btnSelectImageFolder_clicked
EXTRN	?on_btnSelectDoxyFileName_clicked@DoxygenExport@@AAEXXZ:PROC ; DoxygenExport::on_btnSelectDoxyFileName_clicked
CRT$XCU	SEGMENT
??staticMetaObject$initializer$@DoxygenExport@@2P6AXXZA@@3P6AXXZA DD FLAT:??__E?staticMetaObject@DoxygenExport@@2UQMetaObject@@B@@YAXXZ ; ??staticMetaObject$initializer$@DoxygenExport@@2P6AXXZA@@3P6AXXZA
CRT$XCU	ENDS
_DATA	SEGMENT
?staticMetaObject@DoxygenExport@@2UQMetaObject@@B DB 4 DUP(00H) ; DoxygenExport::staticMetaObject
	DD	FLAT:?qt_meta_stringdata_DoxygenExport@@3Uqt_meta_stringdata_DoxygenExport_t@@B
	DD	FLAT:?qt_meta_data_DoxygenExport@@3QBIB
	DD	FLAT:?qt_static_metacall@DoxygenExport@@CAXPAVQObject@@W4Call@QMetaObject@@HPAPAX@Z
	DD	00H
	DD	00H
_DATA	ENDS
; Function compile flags: /Ogtp
;	COMDAT ??__E?staticMetaObject@DoxygenExport@@2UQMetaObject@@B@@YAXXZ
text$di	SEGMENT
??__E?staticMetaObject@DoxygenExport@@2UQMetaObject@@B@@YAXXZ PROC ; `dynamic initializer for 'DoxygenExport::staticMetaObject'', COMDAT
; File d:\visualstudio_projects\qtres2dox\qtres2dox\generatedfiles\release\moc_doxygenexport.cpp
; Line 84
	mov	eax, DWORD PTR __imp_?staticMetaObject@QDialog@@2UQMetaObject@@B
	mov	DWORD PTR ?staticMetaObject@DoxygenExport@@2UQMetaObject@@B, eax
; Line 85
	ret	0
??__E?staticMetaObject@DoxygenExport@@2UQMetaObject@@B@@YAXXZ ENDP ; `dynamic initializer for 'DoxygenExport::staticMetaObject''
text$di	ENDS
; Function compile flags: /Ogtp
;	COMDAT ?qt_static_metacall@DoxygenExport@@CAXPAVQObject@@W4Call@QMetaObject@@HPAPAX@Z
_TEXT	SEGMENT
__o$ = 8						; size = 4
__c$ = 12						; size = 4
__id$ = 16						; size = 4
__a$ = 20						; size = 4
?qt_static_metacall@DoxygenExport@@CAXPAVQObject@@W4Call@QMetaObject@@HPAPAX@Z PROC ; DoxygenExport::qt_static_metacall, COMDAT
; File d:\visualstudio_projects\qtres2dox\qtres2dox\generatedfiles\release\moc_doxygenexport.cpp
; Line 70
	push	ebp
	mov	ebp, esp
; Line 71
	cmp	DWORD PTR __c$[ebp], 0
	jne	SHORT $LN7@qt_static_
; Line 74
	mov	eax, DWORD PTR __id$[ebp]
	sub	eax, 0
	je	SHORT $LN5@qt_static_
	sub	eax, 1
	jne	SHORT $LN7@qt_static_
; Line 76
	mov	ecx, DWORD PTR __o$[ebp]
; Line 81
	pop	ebp
; Line 76
	jmp	?on_btnSelectDoxyFileName_clicked@DoxygenExport@@AAEXXZ ; DoxygenExport::on_btnSelectDoxyFileName_clicked
$LN5@qt_static_:
; Line 75
	mov	ecx, DWORD PTR __o$[ebp]
; Line 81
	pop	ebp
; Line 75
	jmp	?on_btnSelectImageFolder_clicked@DoxygenExport@@AAEXXZ ; DoxygenExport::on_btnSelectImageFolder_clicked
$LN7@qt_static_:
; Line 81
	pop	ebp
	ret	0
?qt_static_metacall@DoxygenExport@@CAXPAVQObject@@W4Call@QMetaObject@@HPAPAX@Z ENDP ; DoxygenExport::qt_static_metacall
_TEXT	ENDS
; Function compile flags: /Ogtp
;	COMDAT ?qt_metacall@DoxygenExport@@UAEHW4Call@QMetaObject@@HPAPAX@Z
_TEXT	SEGMENT
__c$ = 8						; size = 4
__id$ = 12						; size = 4
__a$ = 16						; size = 4
?qt_metacall@DoxygenExport@@UAEHW4Call@QMetaObject@@HPAPAX@Z PROC ; DoxygenExport::qt_metacall, COMDAT
; _this$ = ecx
; File d:\visualstudio_projects\qtres2dox\qtres2dox\generatedfiles\release\moc_doxygenexport.cpp
; Line 103
	push	ebp
	mov	ebp, esp
	push	ebx
	push	esi
	push	edi
; Line 104
	push	DWORD PTR __a$[ebp]
	mov	edi, DWORD PTR __c$[ebp]
	mov	ebx, ecx
	push	DWORD PTR __id$[ebp]
	push	edi
	call	DWORD PTR __imp_?qt_metacall@QDialog@@UAEHW4Call@QMetaObject@@HPAPAX@Z
	mov	esi, eax
; Line 105
	test	esi, esi
	js	SHORT $LN1@qt_metacal
; Line 107
	test	edi, edi
	jne	SHORT $LN3@qt_metacal
; Line 108
	cmp	esi, 2
	jge	SHORT $LN7@qt_metacal
; Line 109
	sub	eax, edi
	je	SHORT $LN13@qt_metacal
	sub	eax, 1
	jne	SHORT $LN7@qt_metacal
	mov	ecx, ebx
	call	?on_btnSelectDoxyFileName_clicked@DoxygenExport@@AAEXXZ ; DoxygenExport::on_btnSelectDoxyFileName_clicked
; Line 114
	sub	esi, 2
	pop	edi
; Line 116
	mov	eax, esi
	pop	esi
	pop	ebx
; Line 117
	pop	ebp
	ret	12					; 0000000cH
; Line 109
$LN13@qt_metacal:
	mov	ecx, ebx
	call	?on_btnSelectImageFolder_clicked@DoxygenExport@@AAEXXZ ; DoxygenExport::on_btnSelectImageFolder_clicked
; Line 114
	sub	esi, 2
	pop	edi
; Line 116
	mov	eax, esi
	pop	esi
	pop	ebx
; Line 117
	pop	ebp
	ret	12					; 0000000cH
$LN3@qt_metacal:
; Line 111
	cmp	edi, 12					; 0000000cH
	jne	SHORT $LN6@qt_metacal
; Line 112
	cmp	esi, 2
	jge	SHORT $LN7@qt_metacal
; Line 113
	mov	eax, DWORD PTR __a$[ebp]
	mov	eax, DWORD PTR [eax]
	mov	DWORD PTR [eax], -1
$LN7@qt_metacal:
; Line 114
	sub	esi, 2
$LN6@qt_metacal:
; Line 116
	mov	eax, esi
$LN1@qt_metacal:
	pop	edi
	pop	esi
	pop	ebx
; Line 117
	pop	ebp
	ret	12					; 0000000cH
?qt_metacall@DoxygenExport@@UAEHW4Call@QMetaObject@@HPAPAX@Z ENDP ; DoxygenExport::qt_metacall
_TEXT	ENDS
; Function compile flags: /Ogtp
;	COMDAT ?qt_metacast@DoxygenExport@@UAEPAXPBD@Z
_TEXT	SEGMENT
__clname$ = 8						; size = 4
?qt_metacast@DoxygenExport@@UAEPAXPBD@Z PROC		; DoxygenExport::qt_metacast, COMDAT
; _this$ = ecx
; File d:\visualstudio_projects\qtres2dox\qtres2dox\generatedfiles\release\moc_doxygenexport.cpp
; Line 95
	push	ebp
	mov	ebp, esp
	push	esi
; Line 96
	mov	esi, DWORD PTR __clname$[ebp]
	push	edi
	mov	edi, ecx
	test	esi, esi
	jne	SHORT $LN2@qt_metacas
	pop	edi
	xor	eax, eax
	pop	esi
; Line 100
	pop	ebp
	ret	4
$LN2@qt_metacas:
; Line 97
	mov	eax, OFFSET ?qt_meta_stringdata_DoxygenExport@@3Uqt_meta_stringdata_DoxygenExport_t@@B+64
	mov	ecx, esi
	npad	3
$LL5@qt_metacas:
	mov	dl, BYTE PTR [ecx]
	cmp	dl, BYTE PTR [eax]
	jne	SHORT $LN6@qt_metacas
	test	dl, dl
	je	SHORT $LN7@qt_metacas
	mov	dl, BYTE PTR [ecx+1]
	cmp	dl, BYTE PTR [eax+1]
	jne	SHORT $LN6@qt_metacas
	add	ecx, 2
	add	eax, 2
	test	dl, dl
	jne	SHORT $LL5@qt_metacas
$LN7@qt_metacas:
	xor	eax, eax
	jmp	SHORT $LN8@qt_metacas
$LN6@qt_metacas:
	sbb	eax, eax
	or	eax, 1
$LN8@qt_metacas:
	test	eax, eax
	jne	SHORT $LN3@qt_metacas
; Line 98
	mov	eax, edi
	pop	edi
	pop	esi
; Line 100
	pop	ebp
	ret	4
$LN3@qt_metacas:
; Line 99
	push	esi
	mov	ecx, edi
	call	DWORD PTR __imp_?qt_metacast@QDialog@@UAEPAXPBD@Z
	pop	edi
	pop	esi
; Line 100
	pop	ebp
	ret	4
?qt_metacast@DoxygenExport@@UAEPAXPBD@Z ENDP		; DoxygenExport::qt_metacast
_TEXT	ENDS
; Function compile flags: /Ogtp
;	COMDAT ?metaObject@DoxygenExport@@UBEPBUQMetaObject@@XZ
_TEXT	SEGMENT
?metaObject@DoxygenExport@@UBEPBUQMetaObject@@XZ PROC	; DoxygenExport::metaObject, COMDAT
; _this$ = ecx
; File d:\visualstudio_projects\qtres2dox\qtres2dox\generatedfiles\release\moc_doxygenexport.cpp
; Line 91
	mov	ecx, DWORD PTR [ecx+4]
	cmp	DWORD PTR [ecx+24], 0
	je	SHORT $LN3@metaObject
	jmp	DWORD PTR __imp_?dynamicMetaObject@QObjectData@@QBEPAUQMetaObject@@XZ
$LN3@metaObject:
	mov	eax, OFFSET ?staticMetaObject@DoxygenExport@@2UQMetaObject@@B ; DoxygenExport::staticMetaObject
; Line 92
	ret	0
?metaObject@DoxygenExport@@UBEPBUQMetaObject@@XZ ENDP	; DoxygenExport::metaObject
_TEXT	ENDS
; Function compile flags: /Ogtp
;	COMDAT ??C?$QScopedPointer@VQObjectData@@U?$QScopedPointerDeleter@VQObjectData@@@@@@QBEPAVQObjectData@@XZ
_TEXT	SEGMENT
??C?$QScopedPointer@VQObjectData@@U?$QScopedPointerDeleter@VQObjectData@@@@@@QBEPAVQObjectData@@XZ PROC ; QScopedPointer<QObjectData,QScopedPointerDeleter<QObjectData> >::operator->, COMDAT
; _this$ = ecx
; File c:\qt\5_9_3_vs2015\include\qtcore\qscopedpointer.h
; Line 118
	mov	eax, DWORD PTR [ecx]
; Line 119
	ret	0
??C?$QScopedPointer@VQObjectData@@U?$QScopedPointerDeleter@VQObjectData@@@@@@QBEPAVQObjectData@@XZ ENDP ; QScopedPointer<QObjectData,QScopedPointerDeleter<QObjectData> >::operator->
_TEXT	ENDS
END
