; Listing generated by Microsoft (R) Optimizing Compiler Version 19.00.24215.1 

	TITLE	D:\VisualStudio_Projects\qtres2dox\qtres2dox\GeneratedFiles\qrc_qtres2dox.cpp
	.686P
	.XMM
	include listing.inc
	.model	flat

INCLUDELIB MSVCRT
INCLUDELIB OLDNAMES

CONST	SEGMENT
?qt_resource_data@@3QBEB DB 00H				; qt_resource_data
	DB	00H
	DB	06H
	DB	042H
	DB	089H
	DB	050H
	DB	04eH
	DB	047H
	DB	0dH
	DB	0aH
	DB	01aH
	DB	0aH
	DB	00H
	DB	00H
	DB	00H
	DB	0dH
	DB	049H
	DB	048H
	DB	044H
	DB	052H
	DB	00H
	DB	00H
	DB	00H
	DB	020H
	DB	00H
	DB	00H
	DB	00H
	DB	020H
	DB	08H
	DB	02H
	DB	00H
	DB	00H
	DB	00H
	DB	0fcH
	DB	018H
	DB	0edH
	DB	0a3H
	DB	00H
	DB	00H
	DB	00H
	DB	09H
	DB	070H
	DB	048H
	DB	059H
	DB	073H
	DB	00H
	DB	00H
	DB	017H
	DB	012H
	DB	00H
	DB	00H
	DB	017H
	DB	012H
	DB	01H
	DB	067H
	DB	09fH
	DB	0d2H
	DB	052H
	DB	00H
	DB	00H
	DB	00H
	DB	09H
	DB	076H
	DB	070H
	DB	041H
	DB	067H
	DB	00H
	DB	00H
	DB	00H
	DB	020H
	DB	00H
	DB	00H
	DB	00H
	DB	020H
	DB	00H
	DB	087H
	DB	0faH
	DB	09cH
	DB	09dH
	DB	00H
	DB	00H
	DB	05H
	DB	0dfH
	DB	049H
	DB	044H
	DB	041H
	DB	054H
	DB	048H
	DB	0c7H
	DB	0ddH
	DB	096H
	DB	07bH
	DB	050H
	DB	054H
	DB	055H
	DB	01cH
	DB	0c7H
	DB	0cfH
	DB	03dH
	DB	0f7H
	DB	0eeH
	DB	0ddH
	DB	065H
	DB	0dfH
	DB	02fH
	DB	058H
	DB	064H
	DB	05H
	DB	059H
	DB	090H
	DB	087H
	DB	080H
	DB	060H
	DB	081H
	DB	0a5H
	DB	0a6H
	DB	0f9H
	DB	0aH
	DB	04dH
	DB	0f1H
	DB	015H
	DB	08H
	DB	093H
	DB	099H
	DB	0d5H
	DB	090H
	DB	059H
	DB	03aH
	DB	0e2H
	DB	050H
	DB	0a3H
	DB	0a6H
	DB	04eH
	DB	02fH
	DB	0cbH
	DB	029H
	DB	09bH
	DB	0a6H
	DB	066H
	DB	06aH
	DB	0a6H
	DB	0c9H
	DB	0c6H
	DB	0f1H
	DB	091H
	DB	05aH
	DB	06aH
	DB	0a3H
	DB	04eH
	DB	0cdH
	DB	014H
	DB	089H
	DB	0afH
	DB	052H
	DB	0a7H
	DB	0a1H
	DB	054H
	DB	040H
	DB	060H
	DB	059H
	DB	040H
	DB	094H
	DB	0a7H
	DB	02cH
	DB	0fbH
	DB	060H
	DB	059H
	DB	076H
	DB	0efH
	DB	03eH
	DB	0efH
	DB	0deH
	DB	07bH
	DB	04eH
	DB	07fH
	DB	0dcH
	DB	042H
	DB	045H
	DB	042H
	DB	071H
	DB	0f2H
	DB	09fH
	DB	07eH
	DB	07fH
	DB	0dcH
	DB	0bfH
	DB	0ceH
	DB	07cH
	DB	03fH
	DB	0e7H
	DB	0f7H
	DB	0fdH
	DB	07dH
	DB	0cfH
	DB	039H
	DB	097H
	DB	0c0H
	DB	018H
	DB	083H
	DB	087H
	DB	059H
	DB	0f0H
	DB	0a1H
	DB	0aaH
	DB	0ffH
	DB	02fH
	DB	00H
	DB	0d4H
	DB	0a8H
	DB	056H
	DB	023H
	DB	084H
	DB	07eH
	DB	0feH
	DB	0a5H
	DB	0f2H
	DB	0d4H
	DB	0b9H
	DB	0bH
	DB	0b9H
	DB	0d9H
	DB	099H
	DB	045H
	DB	085H
	DB	0cbH
	DB	014H
	DB	0aH
	DB	0f9H
	DB	07fH
	DB	0d9H
	DB	01H
	DB	042H
	DB	0e8H
	DB	0f0H
	DB	0d1H
	DB	063H
	DB	017H
	DB	02eH
	DB	035H
	DB	094H
	DB	014H
	DB	017H
	DB	0bbH
	DB	083H
	DB	078H
	DB	0f9H
	DB	073H
	DB	02fH
	DB	06eH
	DB	0dfH
	DB	0f1H
	DB	071H
	DB	053H
	DB	073H
	DB	0cbH
	DB	0c8H
	DB	031H
	DB	021H
	DB	0eeH
	DB	033H
	DB	045H
	DB	08H
	DB	0a1H
	DB	09fH
	DB	02aH
	DB	04eH
	DB	0feH
	DB	050H
	DB	0f9H
	DB	0dbH
	DB	0e6H
	DB	0dH
	DB	06bH
	DB	031H
	DB	0c6H
	DB	018H
	DB	0e3H
	DB	08H
	DB	0c7H
	DB	09bH
	DB	09bH
	DB	05aH
	DB	04fH
	DB	056H
	DB	09eH
	DB	056H
	DB	0c9H
	DB	044H
	DB	0c5H
	DB	045H
	DB	0cbH
	DB	09eH
	DB	09cH
	DB	03eH
	DB	08dH
	DB	020H
	DB	088H
	DB	07H
	DB	04H
	DB	0b0H
	DB	02cH
	DB	07bH
	DB	0e4H
	DB	0fbH
	DB	0e3H
	DB	0adH
	DB	037H
	DB	05dH
	DB	0abH
	DB	08aH
	DB	017H
	DB	03H
	DB	00H
	DB	030H
	DB	0c6H
	DB	08H
	DB	021H
	DB	0c6H
	DB	0e7H
	DB	0afH
	DB	035H
	DB	0b7H
	DB	04cH
	DB	09cH
	DB	090H
	DB	012H
	DB	0aH
	DB	085H
	DB	04eH
	DB	09fH
	DB	0afH
	DB	0eaH
	DB	0bcH
	DB	0deH
	DB	0b4H
	DB	0e8H
	DB	0e9H
	DB	0a7H
	DB	0e6H
	DB	0ccH
	DB	09eH
	DB	019H
	DB	06bH
	DB	088H
	DB	019H
	DB	01dH
	DB	040H
	DB	070H
	DB	0a6H
	DB	0aaH
	DB	0c6H
	DB	0b2H
	DB	0b1H
	DB	0ecH
	DB	015H
	DB	08cH
	DB	031H
	DB	08fH
	DB	030H
	DB	0c6H
	DB	098H
	DB	065H
	DB	0d9H
	DB	02bH
	DB	075H
	DB	096H
	DB	0f8H
	DB	038H
	DB	043H
	DB	08cH
	DB	05eH
	DB	08bH
	DB	030H
	DB	0e0H
	DB	079H
	DB	03eH
	DB	01cH
	DB	066H
	DB	0abH
	DB	0ebH
	DB	02dH
	DB	0e6H
	DB	0faH
	DB	0daH
	DB	0e4H
	DB	0c4H
	DB	0f8H
	DB	0fcH
	DB	0b9H
	DB	0b3H
	DB	032H
	DB	0d2H
	DB	0d3H
	DB	045H
	DB	022H
	DB	0eaH
	DB	0deH
	DB	00H
	DB	084H
	DB	0d0H
	DB	0b1H
	DB	013H
	DB	03fH
	DB	0d6H
	DB	05dH
	DB	0ebH
	DB	0ceH
	DB	0cdH
	DB	0c9H
	DB	054H
	DB	0c8H
	DB	065H
	DB	031H
	DB	07aH
	DB	0adH
	DB	052H
	DB	02eH
	DB	065H
	DB	023H
	DB	0dcH
	DB	055H
	DB	073H
	DB	0b3H
	DB	046H
	DB	0adH
	DB	04aH
	DB	030H
	DB	0c6H
	DB	022H
	DB	0a1H
	DB	030H
	DB	060H
	DB	07cH
	DB	0feH
	DB	0c6H
	DB	096H
	DB	01bH
	DB	013H
	DB	052H
	DB	04cH
	DB	076H
	DB	0a7H
	DB	0ebH
	DB	0d4H
	DB	0e9H
	DB	033H
	DB	01aH
	DB	0a5H
	DB	02cH
	DB	07fH
	DB	0f6H
	DB	08cH
	DB	069H
	DB	053H
	DB	0a7H
	DB	08eH
	DB	04H
	DB	040H
	DB	08H
	DB	07dH
	DB	073H
	DB	0f0H
	DB	070H
	DB	08dH
	DB	0a5H
	DB	06dH
	DB	0ebH
	DB	0ebH
	DB	0afH
	DB	0f1H
	DB	03cH
	DB	0efH
	DB	0e8H
	DB	0ebH
	DB	06fH
	DB	0efH
	DB	0eaH
	DB	041H
	DB	08H
	DB	0d1H
	DB	034H
	DB	04dH
	DB	08bH
	DB	0a8H
	DB	094H
	DB	0a4H
	DB	071H
	DB	082H
	DB	057H
	DB	08H
	DB	0a1H
	DB	08H
	DB	0c7H
	DB	0ffH
	DB	051H
	DB	05dH
	DB	06fH
	DB	04aH
	DB	030H
	DB	046H
	DB	0ebH
	DB	034H
	DB	082H
	DB	060H
	DB	047H
	DB	0b7H
	DB	0f5H
	DB	0c4H
	DB	0f1H
	DB	063H
	DB	03bH
	DB	03fH
	DB	078H
	DB	01bH
	DB	08eH
	DB	0bcH
	DB	0f7H
	DB	01aH
	DB	04bH
	DB	0dbH
	DB	0bbH
	DB	09bH
	DB	0d7H
	DB	053H
	DB	024H
	DB	014H
	DB	089H
	DB	044H
	DB	063H
	DB	0cH
	DB	0d1H
	DB	053H
	DB	072H
	DB	0b3H
	DB	065H
	DB	0d2H
	DB	0a8H
	DB	048H
	DB	024H
	DB	0d2H
	DB	03fH
	DB	0e0H
	DB	06dH
	DB	06dH
	DB	0ebH
	DB	064H
	DB	059H
	DB	016H
	DB	042H
	DB	088H
	DB	010H
	DB	06aH
	DB	068H
	DB	06aH
	DB	08dH
	DB	08fH
	DB	033H
	DB	0c4H
	DB	0c6H
	DB	0e8H
	DB	021H
	DB	084H
	DB	0c2H
	DB	0a8H
	DB	02fH
	DB	05fH
	DB	06dH
	DB	09cH
	DB	03fH
	DB	0f7H
	DB	049H
	DB	095H
	DB	052H
	DB	031H
	DB	0fcH
	DB	039H
	DB	08H
	DB	085H
	DB	042H
	DB	07bH
	DB	0f6H
	DB	01fH
	DB	074H
	DB	0f9H
	DB	0d1H
	DB	0f6H
	DB	02dH
	DB	01bH
	DB	06H
	DB	067H
	DB	05H
	DB	00H
	DB	0b4H
	DB	03bH
	DB	05dH
	DB	08H
	DB	0a1H
	DB	0bcH
	DB	09cH
	DB	0cH
	DB	036H
	DB	0c2H
	DB	0d9H
	DB	01cH
	DB	07dH
	DB	0e6H
	DB	0e6H
	DB	0ebH
	DB	014H
	DB	045H
	DB	091H
	DB	024H
	DB	0a9H
	DB	094H
	DB	04bH
	DB	04dH
	DB	09H
	DB	046H
	DB	084H
	DB	010H
	DB	08fH
	DB	00H
	DB	084H
	DB	0d0H
	DB	0e6H
	DB	0e8H
	DB	0bH
	DB	0b8H
	DB	07bH
	DB	067H
	DB	0acH
	DB	05cH
	DB	022H
	DB	012H
	DB	089H
	DB	0e0H
	DB	0f0H
	DB	0ceH
	DB	01cH
	DB	03aH
	DB	0dcH
	DB	069H
	DB	01bH
	DB	028H
	DB	05fH
	DB	0f3H
	DB	03cH
	DB	049H
	DB	092H
	DB	0f0H
	DB	09fH
	DB	01aH
	DB	0f0H
	DB	078H
	DB	03bH
	DB	06fH
	DB	0f6H
	DB	04eH
	DB	09cH
	DB	090H
	DB	042H
	DB	0d3H
	DB	0b4H
	DB	034H
	DB	04aH
	DB	092H
	DB	018H
	DB	01fH
	DB	037H
	DB	025H
	DB	037H
	DB	05bH
	DB	022H
	DB	0a6H
	DB	019H
	DB	09fH
	DB	0dfH
	DB	0ebH
	DB	0bH
	DB	074H
	DB	05bH
	DB	0edH
	DB	06cH
	DB	084H
	DB	023H
	DB	021H
	DB	01H
	DB	00H
	DB	0f8H
	DB	06aH
	DB	0d7H
	DB	0aeH
	DB	0a2H
	DB	0a5H
	DB	0bH
	DB	0b5H
	DB	05aH
	DB	02dH
	DB	04dH
	DB	0d3H
	DB	043H
	DB	067H
	DB	0c0H
	DB	0b2H
	DB	0ecH
	DB	0c1H
	DB	0efH
	DB	08eH
	DB	07aH
	DB	082H
	DB	068H
	DB	0e6H
	DB	0b4H
	DB	0c9H
	DB	0a1H
	DB	030H
	DB	01bH
	DB	0a3H
	DB	0d7H
	DB	0eaH
	DB	0b5H
	DB	06aH
	DB	082H
	DB	020H
	DB	018H
	DB	09fH
	DB	0bfH
	DB	0b6H
	DB	0a1H
	DB	029H
	DB	03bH
	DB	023H
	DB	055H
	DB	022H
	DB	091H
	DB	08H
	DB	0d6H
	DB	063H
	DB	08cH
	DB	07bH
	DB	0edH
	DB	0ceH
	DB	0ebH
	DB	0edH
	DB	05dH
	DB	079H
	DB	093H
	DB	0b2H
	DB	058H
	DB	096H
	DB	06dH
	DB	0efH
	DB	0eaH
	DB	071H
	DB	0baH
	DB	0dcH
	DB	01aH
	DB	0b5H
	DB	0aaH
	DB	0b6H
	DB	0deH
	DB	062H
	DB	0d4H
	DB	04aH
	DB	096H
	DB	02cH
	DB	02eH
	DB	0d0H
	DB	0ebH
	DB	0f5H
	DB	014H
	DB	045H
	DB	051H
	DB	043H
	DB	0f6H
	DB	0beH
	DB	077H
	DB	0ffH
	DB	0a1H
	DB	0eH
	DB	07H
	DB	0b3H
	DB	07dH
	DB	0d3H
	DB	05aH
	DB	00H
	DB	080H
	DB	03fH
	DB	010H
	DB	0b4H
	DB	0daH
	DB	01cH
	DB	057H
	DB	0eaH
	DB	02cH
	DB	07aH
	DB	0adH
	DB	0daH
	DB	0e9H
	DB	072H
	DB	0a7H
	DB	026H
	DB	027H
	DB	02aH
	DB	0e4H
	DB	032H
	DB	084H
	DB	010H
	DB	0c6H
	DB	00H
	DB	00H
	DB	0c8H
	DB	0f8H
	DB	0fcH
	DB	0ddH
	DB	056H
	DB	0fbH
	DB	0a4H
	DB	0acH
	DB	074H
	DB	011H
	DB	045H
	DB	052H
	DB	0a4H
	DB	024H
	DB	03dH
	DB	025H
	DB	069H
	DB	0bcH
	DB	089H
	DB	06bH
	DB	06dH
	DB	0ebH
	DB	01cH
	DB	070H
	DB	0deH
	DB	07cH
	DB	0a9H
	DB	064H
	DB	08dH
	DB	05aH
	DB	0adH
	DB	016H
	DB	0c4H
	DB	0e1H
	DB	0edH
	DB	0eaH
	DB	07H
	DB	0beH
	DB	03dH
	DB	0d2H
	DB	0e9H
	DB	064H
	DB	03eH
	DB	0dcH
	DB	0b6H
	DB	081H
	DB	0a2H
	DB	028H
	DB	08H
	DB	0a1H
	DB	05cH
	DB	026H
	DB	01dH
	DB	06fH
	DB	04aH
	DB	0c8H
	DB	0cbH
	DB	0c9H
	DB	0f0H
	DB	078H
	DB	019H
	DB	031H
	DB	02dH
	DB	0b2H
	DB	0daH
	DB	01cH
	DB	07dH
	DB	0fdH
	DB	03H
	DB	018H
	DB	063H
	DB	082H
	DB	020H
	DB	010H
	DB	042H
	DB	08dH
	DB	02dH
	DB	037H
	DB	04cH
	DB	09H
	DB	046H
	DB	085H
	DB	05cH
	DB	046H
	DB	010H
	DB	04H
	DB	084H
	DB	090H
	DB	084H
	DB	04H
	DB	0c6H
	DB	0b8H
	DB	0e2H
	DB	064H
	DB	0e5H
	DB	0f2H
	DB	065H
	DB	05H
	DB	03aH
	DB	09dH
	DB	08eH
	DB	0a6H
	DB	069H
	DB	041H
	DB	0f6H
	DB	0efH
	DB	0eH
	DB	0fcH
	DB	0feH
	DB	0c0H
	DB	0eeH
	DB	07dH
	DB	07H
	DB	05cH
	DB	0beH
	DB	0c8H
	DB	08eH
	DB	02dH
	DB	065H
	DB	010H
	DB	012H
	DB	00H
	DB	010H
	DB	02H
	DB	012H
	DB	042H
	DB	0d8H
	DB	0d1H
	DB	06dH
	DB	08dH
	DB	0d6H
	DB	069H
	DB	012H
	DB	0e3H
	DB	0e3H
	DB	0dcH
	DB	01eH
	DB	0c6H
	DB	0eeH
	DB	074H
	DB	075H
	DB	074H
	DB	05bH
	DB	0d5H
	DB	04aH
	DB	0b9H
	DB	0d7H
	DB	017H
	DB	010H
	DB	062H
	DB	023H
	DB	038H
	DB	02cH
	DB	07cH
	DB	0bfH
	DB	0deH
	DB	07fH
	DB	064H
	DB	0eaH
	DB	0a3H
	DB	059H
	DB	069H
	DB	0a9H
	DB	0a9H
	DB	052H
	DB	0a9H
	DB	014H
	DB	042H
	DB	078H
	DB	0bH
	DB	0c0H
	DB	0f3H
	DB	0fcH
	DB	0eeH
	DB	07dH
	DB	07H
	DB	034H
	DB	0faH
	DB	031H
	DB	0e5H
	DB	0ebH
	DB	097H
	DB	0eH
	DB	036H
	DB	044H
	DB	092H
	DB	010H
	DB	00H
	DB	0d0H
	DB	0deH
	DB	0d5H
	DB	023H
	DB	0a6H
	DB	045H
	DB	049H
	DB	0e3H
	DB	0c6H
	DB	062H
	DB	08cH
	DB	035H
	DB	02aH
	DB	085H
	DB	052H
	DB	021H
	DB	037H
	DB	025H
	DB	018H
	DB	06bH
	DB	01bH
	DB	09aH
	DB	038H
	DB	08eH
	DB	0f3H
	DB	078H
	DB	019H
	DB	089H
	DB	098H
	DB	0d6H
	DB	0a8H
	DB	055H
	DB	042H
	DB	052H
	DB	01bH
	DB	05bH
	DB	06eH
	DB	084H
	DB	099H
	DB	0beH
	DB	0e9H
	DB	04fH
	DB	03cH
	DB	0abH
	DB	054H
	DB	02aH
	DB	06fH
	DB	077H
	DB	09eH
	DB	042H
	DB	08H
	DB	07dH
	DB	0f2H
	DB	0d9H
	DB	017H
	DB	0e6H
	DB	096H
	DB	0f6H
	DB	03dH
	DB	05fH
	DB	096H
	DB	0eH
	DB	089H
	DB	053H
	DB	0bfH
	DB	07bH
	DB	080H
	DB	065H
	DB	0d9H
	DB	0e4H
	DB	0c4H
	DB	078H
	DB	0c1H
	DB	013H
	DB	08H
	DB	021H
	DB	00H
	DB	0c8H
	DB	0daH
	DB	0d7H
	DB	04fH
	DB	0d3H
	DB	074H
	DB	04eH
	DB	066H
	DB	09aH
	DB	0d0H
	DB	050H
	DB	07bH
	DB	057H
	DB	08fH
	DB	05aH
	DB	0a5H
	DB	034H
	DB	044H
	DB	0ebH
	DB	0f6H
	DB	0eeH
	DB	0ddH
	DB	0f7H
	DB	0feH
	DB	05bH
	DB	01bH
	DB	0f5H
	DB	07aH
	DB	0bdH
	DB	058H
	DB	02cH
	DB	0beH
	DB	0e3H
	DB	02eH
	DB	0aH
	DB	087H
	DB	0c3H
	DB	057H
	DB	0aaH
	DB	06bH
	DB	0ceH
	DB	0feH
	DB	07aH
	DB	0a1H
	DB	0d7H
	DB	0d9H
	DB	0ffH
	DB	0d8H
	DB	0e3H
	DB	053H
	DB	0aH
	DB	0bH
	DB	0f2H
	DB	095H
	DB	0aH
	DB	019H
	DB	00H
	DB	0c0H
	DB	03dH
	DB	0e0H
	DB	0b5H
	DB	03bH
	DB	05dH
	DB	029H
	DB	049H
	DB	0e3H
	DB	04H
	DB	075H
	DB	021H
	DB	036H
	DB	0c2H
	DB	061H
	DB	0ceH
	DB	0ceH
	DB	048H
	DB	025H
	DB	08H
	DB	042H
	DB	0c8H
	DB	052H
	DB	030H
	DB	014H
	DB	0b6H
	DB	039H
	DB	0faH
	DB	02aH
	DB	0ceH
	DB	05cH
	DB	04cH
	DB	08aH
	DB	055H
	DB	0ccH
	DB	09bH
	DB	097H
	DB	0afH
	DB	0d5H
	DB	06aH
	DB	049H
	DB	092H
	DB	0bcH
	DB	01dH
	DB	040H
	DB	041H
	DB	08H
	DB	0d3H
	DB	0d3H
	DB	052H
	DB	063H
	DB	0a2H
	DB	0f5H
	DB	036H
	DB	0bbH
	DB	0bdH
	DB	0a6H
	DB	0b6H
	DB	0aeH
	DB	0ecH
	DB	08dH
	DB	037H
	DB	0c7H
	DB	09aH
	DB	052H
	DB	057H
	DB	0afH
	DB	02cH
	DB	064H
	DB	023H
	DB	05cH
	DB	062H
	DB	07cH
	DB	09cH
	DB	060H
	DB	094H
	DB	090H
	DB	05H
	DB	07fH
	DB	020H
	DB	068H
	DB	077H
	DB	0baH
	DB	032H
	DB	0d3H
	DB	092H
	DB	069H
	DB	011H
	DB	0c5H
	DB	0f1H
	DB	08H
	DB	00H
	DB	00H
	DB	021H
	DB	08cH
	DB	092H
	DB	088H
	DB	07H
	DB	03cH
	DB	05eH
	DB	0bfH
	DB	0dbH
	DB	036H
	DB	0a3H
	DB	078H
	DB	081H
	DB	052H
	DB	0a9H
	DB	01cH
	DB	0a2H
	DB	0eH
	DB	00H
	DB	020H
	DB	010H
	DB	042H
	DB	03cH
	DB	0cfH
	DB	0b3H
	DB	02cH
	DB	01bH
	DB	0cH
	DB	06H
	DB	019H
	DB	086H
	DB	0f1H
	DB	078H
	DB	03cH
	DB	0e6H
	DB	046H
	DB	04bH
	DB	0d5H
	DB	0a5H
	DB	01aH
	DB	0afH
	DB	09fH
	DB	05dH
	DB	0f7H
	DB	06aH
	DB	069H
	DB	0deH
	DB	0a4H
	DB	02cH
	DB	08aH
	DB	022H
	DB	01H
	DB	00H
	DB	091H
	DB	08H
	DB	0d7H
	DB	0d0H
	DB	0d4H
	DB	01aH
	DB	017H
	DB	01bH
	DB	0a3H
	DB	051H
	DB	029H
	DB	084H
	DB	0bdH
	DB	0bH
	DB	08cH
	DB	050H
	DB	028H
	DB	0f4H
	DB	0deH
	DB	047H
	DB	09fH
	DB	0beH
	DB	050H
	DB	0b2H
	DB	034H
	DB	033H
	DB	033H
	DB	043H
	DB	02eH
	DB	097H
	DB	0dfH
	DB	0fdH
	DB	024H
	DB	0dcH
	DB	03aH
	DB	068H
	DB	08H
	DB	0a1H
	DB	048H
	DB	024H
	DB	012H
	DB	0aH
	DB	085H
	DB	04H
	DB	04cH
	DB	047H
	DB	067H
	DB	0d7H
	DB	099H
	DB	073H
	DB	0e7H
	DB	01bH
	DB	09bH
	DB	05bH
	DB	04bH
	DB	04bH
	DB	05fH
	DB	05eH
	DB	03cH
	DB	07fH
	DB	056H
	DB	08fH
	DB	0cdH
	DB	029H
	DB	097H
	DB	049H
	DB	0dH
	DB	0d1H
	DB	0baH
	DB	041H
	DB	0bbH
	DB	04H
	DB	0c6H
	DB	03bH
	DB	03bH
	DB	03fH
	DB	0cfH
	DB	049H
	DB	019H
	DB	0bbH
	DB	0a8H
	DB	060H
	DB	081H
	DB	046H
	DB	0a3H
	DB	019H
	DB	072H
	DB	0aaH
	DB	0eeH
	DB	088H
	DB	0a9H
	DB	0d0H
	DB	0afH
	DB	058H
	DB	02cH
	DB	0a6H
	DB	069H
	DB	05aH
	DB	02aH
	DB	095H
	DB	0aaH
	DB	054H
	DB	02aH
	DB	09dH
	DB	04eH
	DB	097H
	DB	09cH
	DB	064H
	DB	072H
	DB	03aH
	DB	09dH
	DB	055H
	DB	07fH
	DB	056H
	DB	0afH
	DB	02bH
	DB	0afH
	DB	0c8H
	DB	07eH
	DB	064H
	DB	0f2H
	DB	08aH
	DB	0c2H
	DB	085H
	DB	042H
	DB	0e4H
	DB	07H
	DB	073H
	DB	079H
	DB	0b5H
	DB	0ceH
	DB	0a2H
	DB	014H
	DB	083H
	DB	039H
	DB	0b3H
	DB	067H
	DB	02aH
	DB	014H
	DB	08aH
	DB	061H
	DB	0d5H
	DB	0c1H
	DB	08H
	DB	0efH
	DB	01H
	DB	0c7H
	DB	071H
	DB	0e1H
	DB	070H
	DB	038H
	DB	010H
	DB	08H
	DB	030H
	DB	0cH
	DB	0e3H
	DB	070H
	DB	038H
	DB	0eaH
	DB	01bH
	DB	01aH
	DB	0ebH
	DB	02cH
	DB	0d7H
	DB	0a2H
	DB	014H
	DB	0daH
	DB	0d5H
	DB	0abH
	DB	04aH
	DB	092H
	DB	013H
	DB	0e3H
	DB	01H
	DB	00H
	DB	0c1H
	DB	050H
	DB	0b8H
	DB	06cH
	DB	0d3H
	DB	0b6H
	DB	0adH
	DB	0e5H
	DB	06bH
	DB	08dH
	DB	046H
	DB	0e3H
	DB	0b0H
	DB	0e6H
	DB	0dcH
	DB	03H
	DB	030H
	DB	0e8H
	DB	01bH
	DB	0cbH
	DB	0b2H
	DB	081H
	DB	040H
	DB	0c0H
	DB	0e7H
	DB	0f3H
	DB	079H
	DB	03cH
	DB	09eH
	DB	07aH
	DB	073H
	DB	063H
	DB	075H
	DB	06dH
	DB	083H
	DB	0dbH
	DB	017H
	DB	05aH
	DB	051H
	DB	052H
	DB	054H
	DB	079H
	DB	0f6H
	DB	062H
	DB	05eH
	DB	0a6H
	DB	069H
	DB	05eH
	DB	0feH
	DB	05cH
	DB	0b5H
	DB	05aH
	DB	07dH
	DB	0f7H
	DB	06cH
	DB	0efH
	DB	017H
	DB	030H
	DB	088H
	DB	0e1H
	DB	038H
	DB	04eH
	DB	018H
	DB	08fH
	DB	0d7H
	DB	0ebH
	DB	0edH
	DB	0eaH
	DB	0eeH
	DB	0feH
	DB	0bdH
	DB	0eaH
	DB	0b2H
	DB	05eH
	DB	0afH
	DB	07bH
	DB	066H
	DB	049H
	DB	081H
	DB	0c1H
	DB	060H
	DB	018H
	DB	0bcH
	DB	015H
	DB	01eH
	DB	01cH
	DB	020H
	DB	014H
	DB	0c6H
	DB	058H
	DB	0f0H
	DB	0cdH
	DB	0efH
	DB	0f7H
	DB	07H
	DB	02H
	DB	01H
	DB	09aH
	DB	0a6H
	DB	0d5H
	DB	06aH
	DB	0b5H
	DB	054H
	DB	02aH
	DB	0fdH
	DB	037H
	DB	073H
	DB	046H
	DB	0dH
	DB	018H
	DB	02cH
	DB	09eH
	DB	0e7H
	DB	039H
	DB	08eH
	DB	023H
	DB	08H
	DB	042H
	DB	0b8H
	DB	013H
	DB	047H
	DB	05eH
	DB	0fcH
	DB	020H
	DB	080H
	DB	051H
	DB	0d5H
	DB	043H
	DB	0ffH
	DB	037H
	DB	0fdH
	DB	0bH
	DB	075H
	DB	03H
	DB	04aH
	DB	06eH
	DB	03fH
	DB	065H
	DB	0daH
	DB	0b9H
	DB	00H
	DB	00H
	DB	00H
	DB	00H
	DB	049H
	DB	045H
	DB	04eH
	DB	044H
	DB	0aeH
	DB	042H
	DB	060H
	DB	082H
	ORG $+2
?qt_resource_name@@3QBEB DB 00H				; qt_resource_name
	DB	09H
	DB	08H
	DB	0c6H
	DB	07aH
	DB	08H
	DB	00H
	DB	071H
	DB	00H
	DB	074H
	DB	00H
	DB	072H
	DB	00H
	DB	065H
	DB	00H
	DB	073H
	DB	00H
	DB	032H
	DB	00H
	DB	064H
	DB	00H
	DB	06fH
	DB	00H
	DB	078H
	DB	00H
	DB	014H
	DB	01H
	DB	06fH
	DB	0b9H
	DB	07H
	DB	00H
	DB	070H
	DB	00H
	DB	06cH
	DB	00H
	DB	061H
	DB	00H
	DB	06eH
	DB	00H
	DB	061H
	DB	00H
	DB	072H
	DB	00H
	DB	073H
	DB	00H
	DB	075H
	DB	00H
	DB	072H
	DB	00H
	DB	066H
	DB	00H
	DB	061H
	DB	00H
	DB	063H
	DB	00H
	DB	065H
	DB	00H
	DB	05fH
	DB	00H
	DB	033H
	DB	00H
	DB	032H
	DB	00H
	DB	02eH
	DB	00H
	DB	070H
	DB	00H
	DB	06eH
	DB	00H
	DB	067H
	ORG $+2
?qt_resource_struct@@3QBEB DB 00H			; qt_resource_struct
	DB	00H
	DB	00H
	DB	00H
	DB	00H
	DB	02H
	DB	00H
	DB	00H
	DB	00H
	DB	01H
	DB	00H
	DB	00H
	DB	00H
	DB	01H
	DB	00H
	DB	00H
	DB	00H
	DB	00H
	DB	00H
	DB	00H
	DB	00H
	DB	00H
	DB	00H
	DB	00H
	DB	00H
	DB	00H
	DB	00H
	DB	02H
	DB	00H
	DB	00H
	DB	00H
	DB	01H
	DB	00H
	DB	00H
	DB	00H
	DB	02H
	DB	00H
	DB	00H
	DB	00H
	DB	00H
	DB	00H
	DB	00H
	DB	00H
	DB	00H
	DB	00H
	DB	00H
	DB	00H
	DB	018H
	DB	00H
	DB	00H
	DB	00H
	DB	00H
	DB	00H
	DB	01H
	DB	00H
	DB	00H
	DB	00H
	DB	00H
	DB	00H
	DB	00H
	DB	01H
	DB	040H
	DB	0ddH
	DB	0aaH
	DB	05fH
	DB	068H
CONST	ENDS
PUBLIC	?qInitResources_qtres2dox@@YAHXZ		; qInitResources_qtres2dox
PUBLIC	?qCleanupResources_qtres2dox@@YAHXZ		; qCleanupResources_qtres2dox
PUBLIC	?dummy@?A0x9c0ca7cd@@3Uinitializer@1@A		; `anonymous namespace'::dummy
EXTRN	_atexit:PROC
EXTRN	___std_terminate:PROC
EXTRN	?qRegisterResourceData@@YA_NHPBE00@Z:PROC	; qRegisterResourceData
EXTRN	?qUnregisterResourceData@@YA_NHPBE00@Z:PROC	; qUnregisterResourceData
EXTRN	@__security_check_cookie@4:PROC
EXTRN	___CxxFrameHandler3:PROC
EXTRN	___security_cookie:DWORD
_BSS	SEGMENT
?dummy@?A0x9c0ca7cd@@3Uinitializer@1@A DB 01H DUP (?)	; `anonymous namespace'::dummy
_BSS	ENDS
CRT$XCU	SEGMENT
?dummy$initializer$@?A0x9c0ca7cd@@3P6AXXZA DD FLAT:??__Edummy@?A0x9c0ca7cd@@YAXXZ ; `anonymous namespace'::dummy$initializer$
CRT$XCU	ENDS
;	COMDAT xdata$x
xdata$x	SEGMENT
__unwindtable$??__Fdummy@?A0x9c0ca7cd@@YAXXZ DD 0ffffffffH
	DD	FLAT:__unwindfunclet$??__Fdummy@?A0x9c0ca7cd@@YAXXZ$0
__ehfuncinfo$??__Fdummy@?A0x9c0ca7cd@@YAXXZ DD 019930522H
	DD	01H
	DD	FLAT:__unwindtable$??__Fdummy@?A0x9c0ca7cd@@YAXXZ
	DD	2 DUP(00H)
	DD	2 DUP(00H)
	DD	00H
	DD	01H
xdata$x	ENDS
;	COMDAT xdata$x
xdata$x	SEGMENT
__ehfuncinfo$??1initializer@?A0x9c0ca7cd@@QAE@XZ DD 019930522H
	DD	00H
	DD	00H
	DD	2 DUP(00H)
	DD	2 DUP(00H)
	DD	00H
	DD	05H
xdata$x	ENDS
; Function compile flags: /Ogtp
;	COMDAT ??__Fdummy@?A0x9c0ca7cd@@YAXXZ
text$yd	SEGMENT
__$EHRec$ = -12						; size = 12
??__Fdummy@?A0x9c0ca7cd@@YAXXZ PROC			; `anonymous namespace'::`dynamic atexit destructor for 'dummy'', COMDAT
	push	ebp
	mov	ebp, esp
	push	-1
	push	__ehhandler$??__Fdummy@?A0x9c0ca7cd@@YAXXZ
	mov	eax, DWORD PTR fs:0
	push	eax
	mov	eax, DWORD PTR ___security_cookie
	xor	eax, ebp
	push	eax
	lea	eax, DWORD PTR __$EHRec$[ebp]
	mov	DWORD PTR fs:0, eax
	push	OFFSET ?qt_resource_data@@3QBEB
	push	OFFSET ?qt_resource_name@@3QBEB
	push	OFFSET ?qt_resource_struct@@3QBEB
	push	2
	mov	DWORD PTR __$EHRec$[ebp+8], 0
	call	?qUnregisterResourceData@@YA_NHPBE00@Z	; qUnregisterResourceData
	add	esp, 16					; 00000010H
	mov	ecx, DWORD PTR __$EHRec$[ebp]
	mov	DWORD PTR fs:0, ecx
	pop	ecx
	mov	esp, ebp
	pop	ebp
	ret	0
text$yd	ENDS
;	COMDAT text$x
text$x	SEGMENT
__unwindfunclet$??__Fdummy@?A0x9c0ca7cd@@YAXXZ$0:
	call	___std_terminate
	ret	0
__ehhandler$??__Fdummy@?A0x9c0ca7cd@@YAXXZ:
	mov	edx, DWORD PTR [esp+8]
	lea	eax, DWORD PTR [edx+12]
	mov	ecx, DWORD PTR [edx-4]
	xor	ecx, eax
	call	@__security_check_cookie@4
	mov	eax, OFFSET __ehfuncinfo$??__Fdummy@?A0x9c0ca7cd@@YAXXZ
	jmp	___CxxFrameHandler3
text$x	ENDS
??__Fdummy@?A0x9c0ca7cd@@YAXXZ ENDP			; `anonymous namespace'::`dynamic atexit destructor for 'dummy''
; Function compile flags: /Ogtp
;	COMDAT ??__Edummy@?A0x9c0ca7cd@@YAXXZ
text$di	SEGMENT
??__Edummy@?A0x9c0ca7cd@@YAXXZ PROC			; `anonymous namespace'::`dynamic initializer for 'dummy'', COMDAT
; File d:\visualstudio_projects\qtres2dox\qtres2dox\generatedfiles\qrc_qtres2dox.cpp
; Line 189
	push	OFFSET ?qt_resource_data@@3QBEB
	push	OFFSET ?qt_resource_name@@3QBEB
	push	OFFSET ?qt_resource_struct@@3QBEB
	push	2
	call	?qRegisterResourceData@@YA_NHPBE00@Z	; qRegisterResourceData
	push	OFFSET ??__Fdummy@?A0x9c0ca7cd@@YAXXZ	; `anonymous namespace'::`dynamic atexit destructor for 'dummy''
	call	_atexit
	add	esp, 20					; 00000014H
	ret	0
??__Edummy@?A0x9c0ca7cd@@YAXXZ ENDP			; `anonymous namespace'::`dynamic initializer for 'dummy''
text$di	ENDS
; Function compile flags: /Ogtp
;	COMDAT ??1initializer@?A0x9c0ca7cd@@QAE@XZ
_TEXT	SEGMENT
__$EHRec$ = -12						; size = 12
??1initializer@?A0x9c0ca7cd@@QAE@XZ PROC		; `anonymous namespace'::initializer::~initializer, COMDAT
; _this$ = ecx
; File d:\visualstudio_projects\qtres2dox\qtres2dox\generatedfiles\qrc_qtres2dox.cpp
; Line 188
	push	ebp
	mov	ebp, esp
	push	-1
	push	__ehhandler$??1initializer@?A0x9c0ca7cd@@QAE@XZ
	mov	eax, DWORD PTR fs:0
	push	eax
	mov	eax, DWORD PTR ___security_cookie
	xor	eax, ebp
	push	eax
	lea	eax, DWORD PTR __$EHRec$[ebp]
	mov	DWORD PTR fs:0, eax
	push	OFFSET ?qt_resource_data@@3QBEB
	push	OFFSET ?qt_resource_name@@3QBEB
	push	OFFSET ?qt_resource_struct@@3QBEB
	push	2
	call	?qUnregisterResourceData@@YA_NHPBE00@Z	; qUnregisterResourceData
	add	esp, 16					; 00000010H
	mov	ecx, DWORD PTR __$EHRec$[ebp]
	mov	DWORD PTR fs:0, ecx
	pop	ecx
	mov	esp, ebp
	pop	ebp
	ret	0
_TEXT	ENDS
;	COMDAT text$x
text$x	SEGMENT
__ehhandler$??1initializer@?A0x9c0ca7cd@@QAE@XZ:
	mov	edx, DWORD PTR [esp+8]
	lea	eax, DWORD PTR [edx+12]
	mov	ecx, DWORD PTR [edx-4]
	xor	ecx, eax
	call	@__security_check_cookie@4
	mov	eax, OFFSET __ehfuncinfo$??1initializer@?A0x9c0ca7cd@@QAE@XZ
	jmp	___CxxFrameHandler3
text$x	ENDS
??1initializer@?A0x9c0ca7cd@@QAE@XZ ENDP		; `anonymous namespace'::initializer::~initializer
; Function compile flags: /Ogtp
;	COMDAT ??0initializer@?A0x9c0ca7cd@@QAE@XZ
_TEXT	SEGMENT
??0initializer@?A0x9c0ca7cd@@QAE@XZ PROC		; `anonymous namespace'::initializer::initializer, COMDAT
; _this$ = ecx
; File d:\visualstudio_projects\qtres2dox\qtres2dox\generatedfiles\qrc_qtres2dox.cpp
; Line 187
	push	esi
	push	OFFSET ?qt_resource_data@@3QBEB
	push	OFFSET ?qt_resource_name@@3QBEB
	push	OFFSET ?qt_resource_struct@@3QBEB
	push	2
	mov	esi, ecx
	call	?qRegisterResourceData@@YA_NHPBE00@Z	; qRegisterResourceData
	add	esp, 16					; 00000010H
	mov	eax, esi
	pop	esi
	ret	0
??0initializer@?A0x9c0ca7cd@@QAE@XZ ENDP		; `anonymous namespace'::initializer::initializer
_TEXT	ENDS
; Function compile flags: /Ogtp
;	COMDAT ?qCleanupResources_qtres2dox@@YAHXZ
_TEXT	SEGMENT
?qCleanupResources_qtres2dox@@YAHXZ PROC		; qCleanupResources_qtres2dox, COMDAT
; File d:\visualstudio_projects\qtres2dox\qtres2dox\generatedfiles\qrc_qtres2dox.cpp
; Line 180
	push	OFFSET ?qt_resource_data@@3QBEB
	push	OFFSET ?qt_resource_name@@3QBEB
	push	OFFSET ?qt_resource_struct@@3QBEB
	push	2
	call	?qUnregisterResourceData@@YA_NHPBE00@Z	; qUnregisterResourceData
	add	esp, 16					; 00000010H
; Line 182
	mov	eax, 1
; Line 183
	ret	0
?qCleanupResources_qtres2dox@@YAHXZ ENDP		; qCleanupResources_qtres2dox
_TEXT	ENDS
; Function compile flags: /Ogtp
;	COMDAT ?qInitResources_qtres2dox@@YAHXZ
_TEXT	SEGMENT
?qInitResources_qtres2dox@@YAHXZ PROC			; qInitResources_qtres2dox, COMDAT
; File d:\visualstudio_projects\qtres2dox\qtres2dox\generatedfiles\qrc_qtres2dox.cpp
; Line 172
	push	OFFSET ?qt_resource_data@@3QBEB
	push	OFFSET ?qt_resource_name@@3QBEB
	push	OFFSET ?qt_resource_struct@@3QBEB
	push	2
	call	?qRegisterResourceData@@YA_NHPBE00@Z	; qRegisterResourceData
	add	esp, 16					; 00000010H
; Line 174
	mov	eax, 1
; Line 175
	ret	0
?qInitResources_qtres2dox@@YAHXZ ENDP			; qInitResources_qtres2dox
_TEXT	ENDS
END
