; Listing generated by Microsoft (R) Optimizing Compiler Version 19.00.24215.1 

	TITLE	D:\VisualStudio_Projects\qtres2dox\qtres2dox\GeneratedFiles\Debug\moc_MyUiForm.cpp
	.686P
	.XMM
	include listing.inc
	.model	flat

INCLUDELIB MSVCRTD
INCLUDELIB OLDNAMES

CONST	SEGMENT
$SG104564 DB	'C:\qt\5_9_3_vs2015\include\QtCore/qmetatype.h', 00H
	ORG $+2
$SG104565 DB	'qRegisterNormalizedMetaType was called with a not normal'
	DB	'ized type name, please call qRegisterMetaType instead.', 00H
	ORG $+1
$SG104566 DB	'qRegisterNormalizedMetaType', 00H
?qt_meta_stringdata_MyUiForm@@3Uqt_meta_stringdata_MyUiForm_t@@B DD 0ffffffffH ; qt_meta_stringdata_MyUiForm
	DD	08H
	DD	00H
	DD	010H
	DB	'MyUiForm', 00H
	ORG $+3
?qt_meta_data_MyUiForm@@3QBIB DD 07H			; qt_meta_data_MyUiForm
	DD	00H
	DD	00H
	DD	00H
	DD	00H
	DD	00H
	DD	00H
	DD	00H
	DD	00H
	DD	00H
	DD	00H
	DD	00H
	DD	00H
	DD	00H
	DD	00H
$SG104866 DB	'C:\qt\5_9_3_vs2015\include\QtCore/qmetatype.h', 00H
	ORG $+6
$SG104867 DB	'qRegisterNormalizedMetaType was called with a not normal'
	DB	'ized type name, please call qRegisterMetaType instead.', 00H
	ORG $+1
$SG104868 DB	'qRegisterNormalizedMetaType', 00H
$SG103960 DB	'C:\qt\5_9_3_vs2015\include\QtCore/qmetatype.h', 00H
	ORG $+6
$SG103961 DB	'qRegisterNormalizedMetaType was called with a not normal'
	DB	'ized type name, please call qRegisterMetaType instead.', 00H
	ORG $+1
$SG103962 DB	'qRegisterNormalizedMetaType', 00H
$SG104262 DB	'C:\qt\5_9_3_vs2015\include\QtCore/qmetatype.h', 00H
	ORG $+6
$SG104263 DB	'qRegisterNormalizedMetaType was called with a not normal'
	DB	'ized type name, please call qRegisterMetaType instead.', 00H
	ORG $+1
$SG104264 DB	'qRegisterNormalizedMetaType', 00H
CONST	ENDS
PUBLIC	?__empty_global_delete@@YAXPAX@Z		; __empty_global_delete
PUBLIC	?__empty_global_delete@@YAXPAXI@Z		; __empty_global_delete
PUBLIC	??C?$QScopedPointer@VQObjectData@@U?$QScopedPointerDeleter@VQObjectData@@@@@@QBEPAVQObjectData@@XZ ; QScopedPointer<QObjectData,QScopedPointerDeleter<QObjectData> >::operator->
PUBLIC	?metaObject@MyUiForm@@UBEPBUQMetaObject@@XZ	; MyUiForm::metaObject
PUBLIC	?qt_metacast@MyUiForm@@UAEPAXPBD@Z		; MyUiForm::qt_metacast
PUBLIC	?qt_metacall@MyUiForm@@UAEHW4Call@QMetaObject@@HPAPAX@Z ; MyUiForm::qt_metacall
PUBLIC	?qt_static_metacall@MyUiForm@@CAXPAVQObject@@W4Call@QMetaObject@@HPAPAX@Z ; MyUiForm::qt_static_metacall
PUBLIC	?staticMetaObject@MyUiForm@@2UQMetaObject@@B	; MyUiForm::staticMetaObject
EXTRN	_strcmp:PROC
EXTRN	__imp_?dynamicMetaObject@QObjectData@@QBEPAUQMetaObject@@XZ:PROC
EXTRN	__imp_?qt_metacast@QObject@@UAEPAXPBD@Z:PROC
EXTRN	__imp_?qt_metacall@QObject@@UAEHW4Call@QMetaObject@@HPAPAX@Z:PROC
EXTRN	__imp_?staticMetaObject@QObject@@2UQMetaObject@@B:BYTE
_BSS	SEGMENT
?staticMetaObject@MyUiForm@@2UQMetaObject@@B DB 018H DUP (?) ; MyUiForm::staticMetaObject
_BSS	ENDS
CRT$XCU	SEGMENT
??staticMetaObject$initializer$@MyUiForm@@2P6AXXZA@@3P6AXXZA DD FLAT:??__E?staticMetaObject@MyUiForm@@2UQMetaObject@@B@@YAXXZ ; ??staticMetaObject$initializer$@MyUiForm@@2P6AXXZA@@3P6AXXZA
CRT$XCU	ENDS
; Function compile flags: /Odtp
;	COMDAT ??__E?staticMetaObject@MyUiForm@@2UQMetaObject@@B@@YAXXZ
text$di	SEGMENT
??__E?staticMetaObject@MyUiForm@@2UQMetaObject@@B@@YAXXZ PROC ; `dynamic initializer for 'MyUiForm::staticMetaObject'', COMDAT
; File d:\visualstudio_projects\qtres2dox\qtres2dox\generatedfiles\debug\moc_myuiform.cpp
; Line 68
	push	ebp
	mov	ebp, esp
; Line 66
	mov	eax, DWORD PTR __imp_?staticMetaObject@QObject@@2UQMetaObject@@B
	mov	DWORD PTR ?staticMetaObject@MyUiForm@@2UQMetaObject@@B, eax
	mov	DWORD PTR ?staticMetaObject@MyUiForm@@2UQMetaObject@@B+4, OFFSET ?qt_meta_stringdata_MyUiForm@@3Uqt_meta_stringdata_MyUiForm_t@@B
; Line 67
	mov	DWORD PTR ?staticMetaObject@MyUiForm@@2UQMetaObject@@B+8, OFFSET ?qt_meta_data_MyUiForm@@3QBIB
	mov	DWORD PTR ?staticMetaObject@MyUiForm@@2UQMetaObject@@B+12, OFFSET ?qt_static_metacall@MyUiForm@@CAXPAVQObject@@W4Call@QMetaObject@@HPAPAX@Z ; MyUiForm::qt_static_metacall
	mov	DWORD PTR ?staticMetaObject@MyUiForm@@2UQMetaObject@@B+16, 0
	mov	DWORD PTR ?staticMetaObject@MyUiForm@@2UQMetaObject@@B+20, 0
	pop	ebp
	ret	0
??__E?staticMetaObject@MyUiForm@@2UQMetaObject@@B@@YAXXZ ENDP ; `dynamic initializer for 'MyUiForm::staticMetaObject''
text$di	ENDS
; Function compile flags: /Odtp
_TEXT	SEGMENT
__o$ = 8						; size = 4
__c$ = 12						; size = 4
__id$ = 16						; size = 4
__a$ = 20						; size = 4
?qt_static_metacall@MyUiForm@@CAXPAVQObject@@W4Call@QMetaObject@@HPAPAX@Z PROC ; MyUiForm::qt_static_metacall
; File d:\visualstudio_projects\qtres2dox\qtres2dox\generatedfiles\debug\moc_myuiform.cpp
; Line 58
	push	ebp
	mov	ebp, esp
; Line 63
	pop	ebp
	ret	0
?qt_static_metacall@MyUiForm@@CAXPAVQObject@@W4Call@QMetaObject@@HPAPAX@Z ENDP ; MyUiForm::qt_static_metacall
_TEXT	ENDS
; Function compile flags: /Odtp
_TEXT	SEGMENT
_this$ = -4						; size = 4
__c$ = 8						; size = 4
__id$ = 12						; size = 4
__a$ = 16						; size = 4
?qt_metacall@MyUiForm@@UAEHW4Call@QMetaObject@@HPAPAX@Z PROC ; MyUiForm::qt_metacall
; _this$ = ecx
; File d:\visualstudio_projects\qtres2dox\qtres2dox\generatedfiles\debug\moc_myuiform.cpp
; Line 85
	push	ebp
	mov	ebp, esp
	push	ecx
	mov	DWORD PTR _this$[ebp], ecx
; Line 86
	mov	eax, DWORD PTR __a$[ebp]
	push	eax
	mov	ecx, DWORD PTR __id$[ebp]
	push	ecx
	mov	edx, DWORD PTR __c$[ebp]
	push	edx
	mov	ecx, DWORD PTR _this$[ebp]
	call	DWORD PTR __imp_?qt_metacall@QObject@@UAEHW4Call@QMetaObject@@HPAPAX@Z
	mov	DWORD PTR __id$[ebp], eax
; Line 87
	mov	eax, DWORD PTR __id$[ebp]
; Line 88
	mov	esp, ebp
	pop	ebp
	ret	12					; 0000000cH
?qt_metacall@MyUiForm@@UAEHW4Call@QMetaObject@@HPAPAX@Z ENDP ; MyUiForm::qt_metacall
_TEXT	ENDS
; Function compile flags: /Odtp
_TEXT	SEGMENT
_this$ = -4						; size = 4
__clname$ = 8						; size = 4
?qt_metacast@MyUiForm@@UAEPAXPBD@Z PROC			; MyUiForm::qt_metacast
; _this$ = ecx
; File d:\visualstudio_projects\qtres2dox\qtres2dox\generatedfiles\debug\moc_myuiform.cpp
; Line 77
	push	ebp
	mov	ebp, esp
	push	ecx
	mov	DWORD PTR _this$[ebp], ecx
; Line 78
	cmp	DWORD PTR __clname$[ebp], 0
	jne	SHORT $LN2@qt_metacas
	xor	eax, eax
	jmp	SHORT $LN1@qt_metacas
$LN2@qt_metacas:
; Line 79
	push	OFFSET ?qt_meta_stringdata_MyUiForm@@3Uqt_meta_stringdata_MyUiForm_t@@B+16
	mov	eax, DWORD PTR __clname$[ebp]
	push	eax
	call	_strcmp
	add	esp, 8
	test	eax, eax
	jne	SHORT $LN3@qt_metacas
; Line 80
	mov	eax, DWORD PTR _this$[ebp]
	jmp	SHORT $LN1@qt_metacas
$LN3@qt_metacas:
; Line 81
	mov	ecx, DWORD PTR __clname$[ebp]
	push	ecx
	mov	ecx, DWORD PTR _this$[ebp]
	call	DWORD PTR __imp_?qt_metacast@QObject@@UAEPAXPBD@Z
$LN1@qt_metacas:
; Line 82
	mov	esp, ebp
	pop	ebp
	ret	4
?qt_metacast@MyUiForm@@UAEPAXPBD@Z ENDP			; MyUiForm::qt_metacast
_TEXT	ENDS
; Function compile flags: /Odtp
_TEXT	SEGMENT
tv82 = -8						; size = 4
_this$ = -4						; size = 4
?metaObject@MyUiForm@@UBEPBUQMetaObject@@XZ PROC	; MyUiForm::metaObject
; _this$ = ecx
; File d:\visualstudio_projects\qtres2dox\qtres2dox\generatedfiles\debug\moc_myuiform.cpp
; Line 72
	push	ebp
	mov	ebp, esp
	sub	esp, 8
	mov	DWORD PTR _this$[ebp], ecx
; Line 73
	mov	ecx, DWORD PTR _this$[ebp]
	add	ecx, 4
	call	??C?$QScopedPointer@VQObjectData@@U?$QScopedPointerDeleter@VQObjectData@@@@@@QBEPAVQObjectData@@XZ ; QScopedPointer<QObjectData,QScopedPointerDeleter<QObjectData> >::operator->
	cmp	DWORD PTR [eax+24], 0
	je	SHORT $LN3@metaObject
	mov	ecx, DWORD PTR _this$[ebp]
	add	ecx, 4
	call	??C?$QScopedPointer@VQObjectData@@U?$QScopedPointerDeleter@VQObjectData@@@@@@QBEPAVQObjectData@@XZ ; QScopedPointer<QObjectData,QScopedPointerDeleter<QObjectData> >::operator->
	mov	ecx, eax
	call	DWORD PTR __imp_?dynamicMetaObject@QObjectData@@QBEPAUQMetaObject@@XZ
	mov	DWORD PTR tv82[ebp], eax
	jmp	SHORT $LN4@metaObject
$LN3@metaObject:
	mov	DWORD PTR tv82[ebp], OFFSET ?staticMetaObject@MyUiForm@@2UQMetaObject@@B ; MyUiForm::staticMetaObject
$LN4@metaObject:
	mov	eax, DWORD PTR tv82[ebp]
; Line 74
	mov	esp, ebp
	pop	ebp
	ret	0
?metaObject@MyUiForm@@UBEPBUQMetaObject@@XZ ENDP	; MyUiForm::metaObject
_TEXT	ENDS
; Function compile flags: /Odtp
;	COMDAT ??C?$QScopedPointer@VQObjectData@@U?$QScopedPointerDeleter@VQObjectData@@@@@@QBEPAVQObjectData@@XZ
_TEXT	SEGMENT
_this$ = -4						; size = 4
??C?$QScopedPointer@VQObjectData@@U?$QScopedPointerDeleter@VQObjectData@@@@@@QBEPAVQObjectData@@XZ PROC ; QScopedPointer<QObjectData,QScopedPointerDeleter<QObjectData> >::operator->, COMDAT
; _this$ = ecx
; File c:\qt\5_9_3_vs2015\include\qtcore\qscopedpointer.h
; Line 117
	push	ebp
	mov	ebp, esp
	push	ecx
	mov	DWORD PTR _this$[ebp], ecx
; Line 118
	mov	eax, DWORD PTR _this$[ebp]
	mov	eax, DWORD PTR [eax]
; Line 119
	mov	esp, ebp
	pop	ebp
	ret	0
??C?$QScopedPointer@VQObjectData@@U?$QScopedPointerDeleter@VQObjectData@@@@@@QBEPAVQObjectData@@XZ ENDP ; QScopedPointer<QObjectData,QScopedPointerDeleter<QObjectData> >::operator->
_TEXT	ENDS
; Function compile flags: /Odtp
;	COMDAT ?__empty_global_delete@@YAXPAXI@Z
_TEXT	SEGMENT
___formal$ = 8						; size = 4
___formal$ = 12						; size = 4
?__empty_global_delete@@YAXPAXI@Z PROC			; __empty_global_delete, COMDAT
; File d:\visualstudio_projects\qtres2dox\qtres2dox\generatedfiles\debug\moc_myuiform.cpp
; Line 91
	push	ebp
	mov	ebp, esp
	pop	ebp
	ret	0
?__empty_global_delete@@YAXPAXI@Z ENDP			; __empty_global_delete
_TEXT	ENDS
; Function compile flags: /Odtp
;	COMDAT ?__empty_global_delete@@YAXPAX@Z
_TEXT	SEGMENT
___formal$ = 8						; size = 4
?__empty_global_delete@@YAXPAX@Z PROC			; __empty_global_delete, COMDAT
; File d:\visualstudio_projects\qtres2dox\qtres2dox\generatedfiles\debug\moc_myuiform.cpp
; Line 91
	push	ebp
	mov	ebp, esp
	pop	ebp
	ret	0
?__empty_global_delete@@YAXPAX@Z ENDP			; __empty_global_delete
_TEXT	ENDS
END
