; Listing generated by Microsoft (R) Optimizing Compiler Version 19.00.24215.1 

	TITLE	D:\VisualStudio_Projects\qtres2dox\qtres2dox\GeneratedFiles\Debug\moc_DoxygenExport.cpp
	.686P
	.XMM
	include listing.inc
	.model	flat

INCLUDELIB MSVCRTD
INCLUDELIB OLDNAMES

CONST	SEGMENT
$SG129206 DB	'C:\qt\5_9_3_vs2015\include\QtCore/qmetatype.h', 00H
	ORG $+2
$SG129207 DB	'qRegisterNormalizedMetaType was called with a not normal'
	DB	'ized type name, please call qRegisterMetaType instead.', 00H
	ORG $+1
$SG129208 DB	'qRegisterNormalizedMetaType', 00H
$SG131259 DB	'C:\qt\5_9_3_vs2015\include\QtCore/qmetatype.h', 00H
	ORG $+6
$SG131260 DB	'qRegisterNormalizedMetaType was called with a not normal'
	DB	'ized type name, please call qRegisterMetaType instead.', 00H
	ORG $+1
$SG131261 DB	'qRegisterNormalizedMetaType', 00H
	ORG $+4
?qt_meta_stringdata_DoxygenExport@@3Uqt_meta_stringdata_DoxygenExport_t@@B DD 0ffffffffH ; qt_meta_stringdata_DoxygenExport
	DD	0dH
	DD	00H
	DD	040H
	DD	0ffffffffH
	DD	01fH
	DD	00H
	DD	03eH
	DD	0ffffffffH
	DD	00H
	DD	00H
	DD	04eH
	DD	0ffffffffH
	DD	020H
	DD	00H
	DD	03fH
	DB	'DoxygenExport', 00H, 'on_btnSelectImageFolder_clicked', 00H
	DB	00H, 'on_btnSelectDoxyFileName_clicked', 00H
$SG132406 DB	'C:\qt\5_9_3_vs2015\include\QtCore/qmetatype.h', 00H
	ORG $+2
$SG132407 DB	'qRegisterNormalizedMetaType was called with a not normal'
	DB	'ized type name, please call qRegisterMetaType instead.', 00H
	ORG $+1
$SG132408 DB	'qRegisterNormalizedMetaType', 00H
	ORG $+4
?qt_meta_data_DoxygenExport@@3QBIB DD 07H		; qt_meta_data_DoxygenExport
	DD	00H
	DD	00H
	DD	00H
	DD	02H
	DD	0eH
	DD	00H
	DD	00H
	DD	00H
	DD	00H
	DD	00H
	DD	00H
	DD	00H
	DD	00H
	DD	01H
	DD	00H
	DD	018H
	DD	02H
	DD	08H
	DD	03H
	DD	00H
	DD	019H
	DD	02H
	DD	08H
	DD	02bH
	DD	02bH
	DD	00H
$SG129508 DB	'C:\qt\5_9_3_vs2015\include\QtCore/qmetatype.h', 00H
	ORG $+6
$SG129509 DB	'qRegisterNormalizedMetaType was called with a not normal'
	DB	'ized type name, please call qRegisterMetaType instead.', 00H
	ORG $+1
$SG129510 DB	'qRegisterNormalizedMetaType', 00H
$SG131649 DB	'C:\qt\5_9_3_vs2015\include\QtCore/qmetatype.h', 00H
	ORG $+6
$SG131650 DB	'qRegisterNormalizedMetaType was called with a not normal'
	DB	'ized type name, please call qRegisterMetaType instead.', 00H
	ORG $+1
$SG131651 DB	'qRegisterNormalizedMetaType', 00H
$SG130655 DB	'C:\qt\5_9_3_vs2015\include\QtCore/qmetatype.h', 00H
	ORG $+6
$SG130656 DB	'qRegisterNormalizedMetaType was called with a not normal'
	DB	'ized type name, please call qRegisterMetaType instead.', 00H
	ORG $+1
$SG130657 DB	'qRegisterNormalizedMetaType', 00H
$SG129810 DB	'C:\qt\5_9_3_vs2015\include\QtCore/qmetatype.h', 00H
	ORG $+6
$SG129811 DB	'qRegisterNormalizedMetaType was called with a not normal'
	DB	'ized type name, please call qRegisterMetaType instead.', 00H
	ORG $+1
$SG129812 DB	'qRegisterNormalizedMetaType', 00H
$SG130957 DB	'C:\qt\5_9_3_vs2015\include\QtCore/qmetatype.h', 00H
	ORG $+6
$SG130958 DB	'qRegisterNormalizedMetaType was called with a not normal'
	DB	'ized type name, please call qRegisterMetaType instead.', 00H
	ORG $+1
$SG130959 DB	'qRegisterNormalizedMetaType', 00H
CONST	ENDS
PUBLIC	?__empty_global_delete@@YAXPAX@Z		; __empty_global_delete
PUBLIC	?__empty_global_delete@@YAXPAXI@Z		; __empty_global_delete
PUBLIC	??C?$QScopedPointer@VQObjectData@@U?$QScopedPointerDeleter@VQObjectData@@@@@@QBEPAVQObjectData@@XZ ; QScopedPointer<QObjectData,QScopedPointerDeleter<QObjectData> >::operator->
PUBLIC	?metaObject@DoxygenExport@@UBEPBUQMetaObject@@XZ ; DoxygenExport::metaObject
PUBLIC	?qt_metacast@DoxygenExport@@UAEPAXPBD@Z		; DoxygenExport::qt_metacast
PUBLIC	?qt_metacall@DoxygenExport@@UAEHW4Call@QMetaObject@@HPAPAX@Z ; DoxygenExport::qt_metacall
PUBLIC	?qt_static_metacall@DoxygenExport@@CAXPAVQObject@@W4Call@QMetaObject@@HPAPAX@Z ; DoxygenExport::qt_static_metacall
PUBLIC	?staticMetaObject@DoxygenExport@@2UQMetaObject@@B ; DoxygenExport::staticMetaObject
EXTRN	_strcmp:PROC
EXTRN	__imp_?dynamicMetaObject@QObjectData@@QBEPAUQMetaObject@@XZ:PROC
EXTRN	__imp_?qt_metacast@QDialog@@UAEPAXPBD@Z:PROC
EXTRN	__imp_?qt_metacall@QDialog@@UAEHW4Call@QMetaObject@@HPAPAX@Z:PROC
EXTRN	?on_btnSelectImageFolder_clicked@DoxygenExport@@AAEXXZ:PROC ; DoxygenExport::on_btnSelectImageFolder_clicked
EXTRN	?on_btnSelectDoxyFileName_clicked@DoxygenExport@@AAEXXZ:PROC ; DoxygenExport::on_btnSelectDoxyFileName_clicked
EXTRN	__imp_?staticMetaObject@QDialog@@2UQMetaObject@@B:BYTE
_BSS	SEGMENT
?staticMetaObject@DoxygenExport@@2UQMetaObject@@B DB 018H DUP (?) ; DoxygenExport::staticMetaObject
_BSS	ENDS
CRT$XCU	SEGMENT
??staticMetaObject$initializer$@DoxygenExport@@2P6AXXZA@@3P6AXXZA DD FLAT:??__E?staticMetaObject@DoxygenExport@@2UQMetaObject@@B@@YAXXZ ; ??staticMetaObject$initializer$@DoxygenExport@@2P6AXXZA@@3P6AXXZA
CRT$XCU	ENDS
; Function compile flags: /Odtp
;	COMDAT ??__E?staticMetaObject@DoxygenExport@@2UQMetaObject@@B@@YAXXZ
text$di	SEGMENT
??__E?staticMetaObject@DoxygenExport@@2UQMetaObject@@B@@YAXXZ PROC ; `dynamic initializer for 'DoxygenExport::staticMetaObject'', COMDAT
; File d:\visualstudio_projects\qtres2dox\qtres2dox\generatedfiles\debug\moc_doxygenexport.cpp
; Line 86
	push	ebp
	mov	ebp, esp
; Line 84
	mov	eax, DWORD PTR __imp_?staticMetaObject@QDialog@@2UQMetaObject@@B
	mov	DWORD PTR ?staticMetaObject@DoxygenExport@@2UQMetaObject@@B, eax
	mov	DWORD PTR ?staticMetaObject@DoxygenExport@@2UQMetaObject@@B+4, OFFSET ?qt_meta_stringdata_DoxygenExport@@3Uqt_meta_stringdata_DoxygenExport_t@@B
; Line 85
	mov	DWORD PTR ?staticMetaObject@DoxygenExport@@2UQMetaObject@@B+8, OFFSET ?qt_meta_data_DoxygenExport@@3QBIB
	mov	DWORD PTR ?staticMetaObject@DoxygenExport@@2UQMetaObject@@B+12, OFFSET ?qt_static_metacall@DoxygenExport@@CAXPAVQObject@@W4Call@QMetaObject@@HPAPAX@Z ; DoxygenExport::qt_static_metacall
	mov	DWORD PTR ?staticMetaObject@DoxygenExport@@2UQMetaObject@@B+16, 0
	mov	DWORD PTR ?staticMetaObject@DoxygenExport@@2UQMetaObject@@B+20, 0
	pop	ebp
	ret	0
??__E?staticMetaObject@DoxygenExport@@2UQMetaObject@@B@@YAXXZ ENDP ; `dynamic initializer for 'DoxygenExport::staticMetaObject''
text$di	ENDS
; Function compile flags: /Odtp
_TEXT	SEGMENT
__t$1 = -8						; size = 4
tv69 = -4						; size = 4
__o$ = 8						; size = 4
__c$ = 12						; size = 4
__id$ = 16						; size = 4
__a$ = 20						; size = 4
?qt_static_metacall@DoxygenExport@@CAXPAVQObject@@W4Call@QMetaObject@@HPAPAX@Z PROC ; DoxygenExport::qt_static_metacall
; File d:\visualstudio_projects\qtres2dox\qtres2dox\generatedfiles\debug\moc_doxygenexport.cpp
; Line 70
	push	ebp
	mov	ebp, esp
	sub	esp, 8
; Line 71
	cmp	DWORD PTR __c$[ebp], 0
	jne	SHORT $LN1@qt_static_
; Line 72
	mov	eax, DWORD PTR __o$[ebp]
	mov	DWORD PTR __t$1[ebp], eax
; Line 74
	mov	ecx, DWORD PTR __id$[ebp]
	mov	DWORD PTR tv69[ebp], ecx
	cmp	DWORD PTR tv69[ebp], 0
	je	SHORT $LN5@qt_static_
	cmp	DWORD PTR tv69[ebp], 1
	je	SHORT $LN6@qt_static_
	jmp	SHORT $LN1@qt_static_
$LN5@qt_static_:
; Line 75
	mov	ecx, DWORD PTR __t$1[ebp]
	call	?on_btnSelectImageFolder_clicked@DoxygenExport@@AAEXXZ ; DoxygenExport::on_btnSelectImageFolder_clicked
	jmp	SHORT $LN1@qt_static_
$LN6@qt_static_:
; Line 76
	mov	ecx, DWORD PTR __t$1[ebp]
	call	?on_btnSelectDoxyFileName_clicked@DoxygenExport@@AAEXXZ ; DoxygenExport::on_btnSelectDoxyFileName_clicked
$LN1@qt_static_:
; Line 81
	mov	esp, ebp
	pop	ebp
	ret	0
?qt_static_metacall@DoxygenExport@@CAXPAVQObject@@W4Call@QMetaObject@@HPAPAX@Z ENDP ; DoxygenExport::qt_static_metacall
_TEXT	ENDS
; Function compile flags: /Odtp
_TEXT	SEGMENT
_this$ = -4						; size = 4
__c$ = 8						; size = 4
__id$ = 12						; size = 4
__a$ = 16						; size = 4
?qt_metacall@DoxygenExport@@UAEHW4Call@QMetaObject@@HPAPAX@Z PROC ; DoxygenExport::qt_metacall
; _this$ = ecx
; File d:\visualstudio_projects\qtres2dox\qtres2dox\generatedfiles\debug\moc_doxygenexport.cpp
; Line 103
	push	ebp
	mov	ebp, esp
	push	ecx
	mov	DWORD PTR _this$[ebp], ecx
; Line 104
	mov	eax, DWORD PTR __a$[ebp]
	push	eax
	mov	ecx, DWORD PTR __id$[ebp]
	push	ecx
	mov	edx, DWORD PTR __c$[ebp]
	push	edx
	mov	ecx, DWORD PTR _this$[ebp]
	call	DWORD PTR __imp_?qt_metacall@QDialog@@UAEHW4Call@QMetaObject@@HPAPAX@Z
	mov	DWORD PTR __id$[ebp], eax
; Line 105
	cmp	DWORD PTR __id$[ebp], 0
	jge	SHORT $LN2@qt_metacal
; Line 106
	mov	eax, DWORD PTR __id$[ebp]
	jmp	SHORT $LN1@qt_metacal
$LN2@qt_metacal:
; Line 107
	cmp	DWORD PTR __c$[ebp], 0
	jne	SHORT $LN3@qt_metacal
; Line 108
	cmp	DWORD PTR __id$[ebp], 2
	jge	SHORT $LN5@qt_metacal
; Line 109
	mov	eax, DWORD PTR __a$[ebp]
	push	eax
	mov	ecx, DWORD PTR __id$[ebp]
	push	ecx
	mov	edx, DWORD PTR __c$[ebp]
	push	edx
	mov	eax, DWORD PTR _this$[ebp]
	push	eax
	call	?qt_static_metacall@DoxygenExport@@CAXPAVQObject@@W4Call@QMetaObject@@HPAPAX@Z ; DoxygenExport::qt_static_metacall
	add	esp, 16					; 00000010H
$LN5@qt_metacal:
; Line 110
	mov	ecx, DWORD PTR __id$[ebp]
	sub	ecx, 2
	mov	DWORD PTR __id$[ebp], ecx
	jmp	SHORT $LN4@qt_metacal
$LN3@qt_metacal:
; Line 111
	cmp	DWORD PTR __c$[ebp], 12			; 0000000cH
	jne	SHORT $LN4@qt_metacal
; Line 112
	cmp	DWORD PTR __id$[ebp], 2
	jge	SHORT $LN7@qt_metacal
; Line 113
	mov	edx, 4
	imul	eax, edx, 0
	mov	ecx, DWORD PTR __a$[ebp]
	mov	edx, DWORD PTR [ecx+eax]
	mov	DWORD PTR [edx], -1
$LN7@qt_metacal:
; Line 114
	mov	eax, DWORD PTR __id$[ebp]
	sub	eax, 2
	mov	DWORD PTR __id$[ebp], eax
$LN4@qt_metacal:
; Line 116
	mov	eax, DWORD PTR __id$[ebp]
$LN1@qt_metacal:
; Line 117
	mov	esp, ebp
	pop	ebp
	ret	12					; 0000000cH
?qt_metacall@DoxygenExport@@UAEHW4Call@QMetaObject@@HPAPAX@Z ENDP ; DoxygenExport::qt_metacall
_TEXT	ENDS
; Function compile flags: /Odtp
_TEXT	SEGMENT
_this$ = -4						; size = 4
__clname$ = 8						; size = 4
?qt_metacast@DoxygenExport@@UAEPAXPBD@Z PROC		; DoxygenExport::qt_metacast
; _this$ = ecx
; File d:\visualstudio_projects\qtres2dox\qtres2dox\generatedfiles\debug\moc_doxygenexport.cpp
; Line 95
	push	ebp
	mov	ebp, esp
	push	ecx
	mov	DWORD PTR _this$[ebp], ecx
; Line 96
	cmp	DWORD PTR __clname$[ebp], 0
	jne	SHORT $LN2@qt_metacas
	xor	eax, eax
	jmp	SHORT $LN1@qt_metacas
$LN2@qt_metacas:
; Line 97
	push	OFFSET ?qt_meta_stringdata_DoxygenExport@@3Uqt_meta_stringdata_DoxygenExport_t@@B+64
	mov	eax, DWORD PTR __clname$[ebp]
	push	eax
	call	_strcmp
	add	esp, 8
	test	eax, eax
	jne	SHORT $LN3@qt_metacas
; Line 98
	mov	eax, DWORD PTR _this$[ebp]
	jmp	SHORT $LN1@qt_metacas
$LN3@qt_metacas:
; Line 99
	mov	ecx, DWORD PTR __clname$[ebp]
	push	ecx
	mov	ecx, DWORD PTR _this$[ebp]
	call	DWORD PTR __imp_?qt_metacast@QDialog@@UAEPAXPBD@Z
$LN1@qt_metacas:
; Line 100
	mov	esp, ebp
	pop	ebp
	ret	4
?qt_metacast@DoxygenExport@@UAEPAXPBD@Z ENDP		; DoxygenExport::qt_metacast
_TEXT	ENDS
; Function compile flags: /Odtp
_TEXT	SEGMENT
tv82 = -8						; size = 4
_this$ = -4						; size = 4
?metaObject@DoxygenExport@@UBEPBUQMetaObject@@XZ PROC	; DoxygenExport::metaObject
; _this$ = ecx
; File d:\visualstudio_projects\qtres2dox\qtres2dox\generatedfiles\debug\moc_doxygenexport.cpp
; Line 90
	push	ebp
	mov	ebp, esp
	sub	esp, 8
	mov	DWORD PTR _this$[ebp], ecx
; Line 91
	mov	ecx, DWORD PTR _this$[ebp]
	add	ecx, 4
	call	??C?$QScopedPointer@VQObjectData@@U?$QScopedPointerDeleter@VQObjectData@@@@@@QBEPAVQObjectData@@XZ ; QScopedPointer<QObjectData,QScopedPointerDeleter<QObjectData> >::operator->
	cmp	DWORD PTR [eax+24], 0
	je	SHORT $LN3@metaObject
	mov	ecx, DWORD PTR _this$[ebp]
	add	ecx, 4
	call	??C?$QScopedPointer@VQObjectData@@U?$QScopedPointerDeleter@VQObjectData@@@@@@QBEPAVQObjectData@@XZ ; QScopedPointer<QObjectData,QScopedPointerDeleter<QObjectData> >::operator->
	mov	ecx, eax
	call	DWORD PTR __imp_?dynamicMetaObject@QObjectData@@QBEPAUQMetaObject@@XZ
	mov	DWORD PTR tv82[ebp], eax
	jmp	SHORT $LN4@metaObject
$LN3@metaObject:
	mov	DWORD PTR tv82[ebp], OFFSET ?staticMetaObject@DoxygenExport@@2UQMetaObject@@B ; DoxygenExport::staticMetaObject
$LN4@metaObject:
	mov	eax, DWORD PTR tv82[ebp]
; Line 92
	mov	esp, ebp
	pop	ebp
	ret	0
?metaObject@DoxygenExport@@UBEPBUQMetaObject@@XZ ENDP	; DoxygenExport::metaObject
_TEXT	ENDS
; Function compile flags: /Odtp
;	COMDAT ??C?$QScopedPointer@VQObjectData@@U?$QScopedPointerDeleter@VQObjectData@@@@@@QBEPAVQObjectData@@XZ
_TEXT	SEGMENT
_this$ = -4						; size = 4
??C?$QScopedPointer@VQObjectData@@U?$QScopedPointerDeleter@VQObjectData@@@@@@QBEPAVQObjectData@@XZ PROC ; QScopedPointer<QObjectData,QScopedPointerDeleter<QObjectData> >::operator->, COMDAT
; _this$ = ecx
; File c:\qt\5_9_3_vs2015\include\qtcore\qscopedpointer.h
; Line 117
	push	ebp
	mov	ebp, esp
	push	ecx
	mov	DWORD PTR _this$[ebp], ecx
; Line 118
	mov	eax, DWORD PTR _this$[ebp]
	mov	eax, DWORD PTR [eax]
; Line 119
	mov	esp, ebp
	pop	ebp
	ret	0
??C?$QScopedPointer@VQObjectData@@U?$QScopedPointerDeleter@VQObjectData@@@@@@QBEPAVQObjectData@@XZ ENDP ; QScopedPointer<QObjectData,QScopedPointerDeleter<QObjectData> >::operator->
_TEXT	ENDS
; Function compile flags: /Odtp
;	COMDAT ?__empty_global_delete@@YAXPAXI@Z
_TEXT	SEGMENT
___formal$ = 8						; size = 4
___formal$ = 12						; size = 4
?__empty_global_delete@@YAXPAXI@Z PROC			; __empty_global_delete, COMDAT
; File d:\visualstudio_projects\qtres2dox\qtres2dox\generatedfiles\debug\moc_doxygenexport.cpp
; Line 120
	push	ebp
	mov	ebp, esp
	pop	ebp
	ret	0
?__empty_global_delete@@YAXPAXI@Z ENDP			; __empty_global_delete
_TEXT	ENDS
; Function compile flags: /Odtp
;	COMDAT ?__empty_global_delete@@YAXPAX@Z
_TEXT	SEGMENT
___formal$ = 8						; size = 4
?__empty_global_delete@@YAXPAX@Z PROC			; __empty_global_delete, COMDAT
; File d:\visualstudio_projects\qtres2dox\qtres2dox\generatedfiles\debug\moc_doxygenexport.cpp
; Line 120
	push	ebp
	mov	ebp, esp
	pop	ebp
	ret	0
?__empty_global_delete@@YAXPAX@Z ENDP			; __empty_global_delete
_TEXT	ENDS
END
