; Listing generated by Microsoft (R) Optimizing Compiler Version 19.00.24215.1 

	TITLE	D:\VisualStudio_Projects\qtres2dox\qtres2dox\GeneratedFiles\Debug\moc_qtres2dox.cpp
	.686P
	.XMM
	include listing.inc
	.model	flat

INCLUDELIB MSVCRTD
INCLUDELIB OLDNAMES

CONST	SEGMENT
$SG132126 DB	'C:\qt\5_9_3_vs2015\include\QtCore/qmetatype.h', 00H
	ORG $+2
$SG132127 DB	'qRegisterNormalizedMetaType was called with a not normal'
	DB	'ized type name, please call qRegisterMetaType instead.', 00H
	ORG $+1
$SG132128 DB	'qRegisterNormalizedMetaType', 00H
$SG134179 DB	'C:\qt\5_9_3_vs2015\include\QtCore/qmetatype.h', 00H
	ORG $+6
$SG134180 DB	'qRegisterNormalizedMetaType was called with a not normal'
	DB	'ized type name, please call qRegisterMetaType instead.', 00H
	ORG $+1
$SG134181 DB	'qRegisterNormalizedMetaType', 00H
$SG135245 DB	'C:\qt\5_9_3_vs2015\include\QtCore/qmetatype.h', 00H
	ORG $+6
$SG135246 DB	'qRegisterNormalizedMetaType was called with a not normal'
	DB	'ized type name, please call qRegisterMetaType instead.', 00H
	ORG $+1
$SG135247 DB	'qRegisterNormalizedMetaType', 00H
$SG132428 DB	'C:\qt\5_9_3_vs2015\include\QtCore/qmetatype.h', 00H
	ORG $+6
$SG132429 DB	'qRegisterNormalizedMetaType was called with a not normal'
	DB	'ized type name, please call qRegisterMetaType instead.', 00H
	ORG $+1
$SG132430 DB	'qRegisterNormalizedMetaType', 00H
$SG134481 DB	'C:\qt\5_9_3_vs2015\include\QtCore/qmetatype.h', 00H
	ORG $+6
$SG134482 DB	'qRegisterNormalizedMetaType was called with a not normal'
	DB	'ized type name, please call qRegisterMetaType instead.', 00H
	ORG $+1
$SG134483 DB	'qRegisterNormalizedMetaType', 00H
	ORG $+4
?qt_meta_stringdata_qtres2dox@@3Uqt_meta_stringdata_qtres2dox_t@@B DD 0ffffffffH ; qt_meta_stringdata_qtres2dox
	DD	09H
	DD	00H
	DD	060H
	DD	0ffffffffH
	DD	08H
	DD	00H
	DD	05aH
	DD	0ffffffffH
	DD	00H
	DD	00H
	DD	053H
	DD	0ffffffffH
	DD	0cH
	DD	00H
	DD	044H
	DD	0ffffffffH
	DD	0bH
	DD	00H
	DD	041H
	DD	0ffffffffH
	DD	0dH
	DD	00H
	DD	03dH
	DB	'qtres2dox', 00H, 'formOpen', 00H, 00H, 'resourceOpen', 00H
	DB	'exportImage', 00H, 'exportDoxygen', 00H
	ORG $+1
	ORG $+4
?qt_meta_data_qtres2dox@@3QBIB DD 07H			; qt_meta_data_qtres2dox
	DD	00H
	DD	00H
	DD	00H
	DD	04H
	DD	0eH
	DD	00H
	DD	00H
	DD	00H
	DD	00H
	DD	00H
	DD	00H
	DD	00H
	DD	00H
	DD	01H
	DD	00H
	DD	022H
	DD	02H
	DD	0aH
	DD	03H
	DD	00H
	DD	023H
	DD	02H
	DD	0aH
	DD	04H
	DD	00H
	DD	024H
	DD	02H
	DD	0aH
	DD	05H
	DD	00H
	DD	025H
	DD	02H
	DD	0aH
	DD	02bH
	DD	02bH
	DD	02bH
	DD	02bH
	DD	00H
$SG132730 DB	'C:\qt\5_9_3_vs2015\include\QtCore/qmetatype.h', 00H
	ORG $+6
$SG132731 DB	'qRegisterNormalizedMetaType was called with a not normal'
	DB	'ized type name, please call qRegisterMetaType instead.', 00H
	ORG $+1
$SG132732 DB	'qRegisterNormalizedMetaType', 00H
$SG133877 DB	'C:\qt\5_9_3_vs2015\include\QtCore/qmetatype.h', 00H
	ORG $+6
$SG133878 DB	'qRegisterNormalizedMetaType was called with a not normal'
	DB	'ized type name, please call qRegisterMetaType instead.', 00H
	ORG $+1
$SG133879 DB	'qRegisterNormalizedMetaType', 00H
$SG133034 DB	'C:\qt\5_9_3_vs2015\include\QtCore/qmetatype.h', 00H
	ORG $+6
$SG133035 DB	'qRegisterNormalizedMetaType was called with a not normal'
	DB	'ized type name, please call qRegisterMetaType instead.', 00H
	ORG $+1
$SG133036 DB	'qRegisterNormalizedMetaType', 00H
CONST	ENDS
PUBLIC	?__empty_global_delete@@YAXPAX@Z		; __empty_global_delete
PUBLIC	?__empty_global_delete@@YAXPAXI@Z		; __empty_global_delete
PUBLIC	??C?$QScopedPointer@VQObjectData@@U?$QScopedPointerDeleter@VQObjectData@@@@@@QBEPAVQObjectData@@XZ ; QScopedPointer<QObjectData,QScopedPointerDeleter<QObjectData> >::operator->
PUBLIC	?metaObject@qtres2dox@@UBEPBUQMetaObject@@XZ	; qtres2dox::metaObject
PUBLIC	?qt_metacast@qtres2dox@@UAEPAXPBD@Z		; qtres2dox::qt_metacast
PUBLIC	?qt_metacall@qtres2dox@@UAEHW4Call@QMetaObject@@HPAPAX@Z ; qtres2dox::qt_metacall
PUBLIC	?qt_static_metacall@qtres2dox@@CAXPAVQObject@@W4Call@QMetaObject@@HPAPAX@Z ; qtres2dox::qt_static_metacall
PUBLIC	?staticMetaObject@qtres2dox@@2UQMetaObject@@B	; qtres2dox::staticMetaObject
EXTRN	_strcmp:PROC
EXTRN	__imp_?dynamicMetaObject@QObjectData@@QBEPAUQMetaObject@@XZ:PROC
EXTRN	__imp_?qt_metacast@QMainWindow@@UAEPAXPBD@Z:PROC
EXTRN	__imp_?qt_metacall@QMainWindow@@UAEHW4Call@QMetaObject@@HPAPAX@Z:PROC
EXTRN	?formOpen@qtres2dox@@QAEXXZ:PROC		; qtres2dox::formOpen
EXTRN	?resourceOpen@qtres2dox@@QAEXXZ:PROC		; qtres2dox::resourceOpen
EXTRN	?exportImage@qtres2dox@@QAEXXZ:PROC		; qtres2dox::exportImage
EXTRN	?exportDoxygen@qtres2dox@@QAEXXZ:PROC		; qtres2dox::exportDoxygen
EXTRN	__imp_?staticMetaObject@QMainWindow@@2UQMetaObject@@B:BYTE
_BSS	SEGMENT
?staticMetaObject@qtres2dox@@2UQMetaObject@@B DB 018H DUP (?) ; qtres2dox::staticMetaObject
_BSS	ENDS
CRT$XCU	SEGMENT
??staticMetaObject$initializer$@qtres2dox@@2P6AXXZA@@3P6AXXZA DD FLAT:??__E?staticMetaObject@qtres2dox@@2UQMetaObject@@B@@YAXXZ ; ??staticMetaObject$initializer$@qtres2dox@@2P6AXXZA@@3P6AXXZA
CRT$XCU	ENDS
; Function compile flags: /Odtp
;	COMDAT ??__E?staticMetaObject@qtres2dox@@2UQMetaObject@@B@@YAXXZ
text$di	SEGMENT
??__E?staticMetaObject@qtres2dox@@2UQMetaObject@@B@@YAXXZ PROC ; `dynamic initializer for 'qtres2dox::staticMetaObject'', COMDAT
; File d:\visualstudio_projects\qtres2dox\qtres2dox\generatedfiles\debug\moc_qtres2dox.cpp
; Line 94
	push	ebp
	mov	ebp, esp
; Line 92
	mov	eax, DWORD PTR __imp_?staticMetaObject@QMainWindow@@2UQMetaObject@@B
	mov	DWORD PTR ?staticMetaObject@qtres2dox@@2UQMetaObject@@B, eax
	mov	DWORD PTR ?staticMetaObject@qtres2dox@@2UQMetaObject@@B+4, OFFSET ?qt_meta_stringdata_qtres2dox@@3Uqt_meta_stringdata_qtres2dox_t@@B
; Line 93
	mov	DWORD PTR ?staticMetaObject@qtres2dox@@2UQMetaObject@@B+8, OFFSET ?qt_meta_data_qtres2dox@@3QBIB
	mov	DWORD PTR ?staticMetaObject@qtres2dox@@2UQMetaObject@@B+12, OFFSET ?qt_static_metacall@qtres2dox@@CAXPAVQObject@@W4Call@QMetaObject@@HPAPAX@Z ; qtres2dox::qt_static_metacall
	mov	DWORD PTR ?staticMetaObject@qtres2dox@@2UQMetaObject@@B+16, 0
	mov	DWORD PTR ?staticMetaObject@qtres2dox@@2UQMetaObject@@B+20, 0
	pop	ebp
	ret	0
??__E?staticMetaObject@qtres2dox@@2UQMetaObject@@B@@YAXXZ ENDP ; `dynamic initializer for 'qtres2dox::staticMetaObject''
text$di	ENDS
; Function compile flags: /Odtp
_TEXT	SEGMENT
tv69 = -8						; size = 4
__t$1 = -4						; size = 4
__o$ = 8						; size = 4
__c$ = 12						; size = 4
__id$ = 16						; size = 4
__a$ = 20						; size = 4
?qt_static_metacall@qtres2dox@@CAXPAVQObject@@W4Call@QMetaObject@@HPAPAX@Z PROC ; qtres2dox::qt_static_metacall
; File d:\visualstudio_projects\qtres2dox\qtres2dox\generatedfiles\debug\moc_qtres2dox.cpp
; Line 76
	push	ebp
	mov	ebp, esp
	sub	esp, 8
; Line 77
	cmp	DWORD PTR __c$[ebp], 0
	jne	SHORT $LN1@qt_static_
; Line 78
	mov	eax, DWORD PTR __o$[ebp]
	mov	DWORD PTR __t$1[ebp], eax
; Line 80
	mov	ecx, DWORD PTR __id$[ebp]
	mov	DWORD PTR tv69[ebp], ecx
	cmp	DWORD PTR tv69[ebp], 3
	ja	SHORT $LN1@qt_static_
	mov	edx, DWORD PTR tv69[ebp]
	jmp	DWORD PTR $LN11@qt_static_[edx*4]
$LN5@qt_static_:
; Line 81
	mov	ecx, DWORD PTR __t$1[ebp]
	call	?formOpen@qtres2dox@@QAEXXZ		; qtres2dox::formOpen
	jmp	SHORT $LN1@qt_static_
$LN6@qt_static_:
; Line 82
	mov	ecx, DWORD PTR __t$1[ebp]
	call	?resourceOpen@qtres2dox@@QAEXXZ		; qtres2dox::resourceOpen
	jmp	SHORT $LN1@qt_static_
$LN7@qt_static_:
; Line 83
	mov	ecx, DWORD PTR __t$1[ebp]
	call	?exportImage@qtres2dox@@QAEXXZ		; qtres2dox::exportImage
	jmp	SHORT $LN1@qt_static_
$LN8@qt_static_:
; Line 84
	mov	ecx, DWORD PTR __t$1[ebp]
	call	?exportDoxygen@qtres2dox@@QAEXXZ	; qtres2dox::exportDoxygen
$LN1@qt_static_:
; Line 89
	mov	esp, ebp
	pop	ebp
	ret	0
	npad	2
$LN11@qt_static_:
	DD	$LN5@qt_static_
	DD	$LN6@qt_static_
	DD	$LN7@qt_static_
	DD	$LN8@qt_static_
?qt_static_metacall@qtres2dox@@CAXPAVQObject@@W4Call@QMetaObject@@HPAPAX@Z ENDP ; qtres2dox::qt_static_metacall
_TEXT	ENDS
; Function compile flags: /Odtp
_TEXT	SEGMENT
_this$ = -4						; size = 4
__c$ = 8						; size = 4
__id$ = 12						; size = 4
__a$ = 16						; size = 4
?qt_metacall@qtres2dox@@UAEHW4Call@QMetaObject@@HPAPAX@Z PROC ; qtres2dox::qt_metacall
; _this$ = ecx
; File d:\visualstudio_projects\qtres2dox\qtres2dox\generatedfiles\debug\moc_qtres2dox.cpp
; Line 111
	push	ebp
	mov	ebp, esp
	push	ecx
	mov	DWORD PTR _this$[ebp], ecx
; Line 112
	mov	eax, DWORD PTR __a$[ebp]
	push	eax
	mov	ecx, DWORD PTR __id$[ebp]
	push	ecx
	mov	edx, DWORD PTR __c$[ebp]
	push	edx
	mov	ecx, DWORD PTR _this$[ebp]
	call	DWORD PTR __imp_?qt_metacall@QMainWindow@@UAEHW4Call@QMetaObject@@HPAPAX@Z
	mov	DWORD PTR __id$[ebp], eax
; Line 113
	cmp	DWORD PTR __id$[ebp], 0
	jge	SHORT $LN2@qt_metacal
; Line 114
	mov	eax, DWORD PTR __id$[ebp]
	jmp	SHORT $LN1@qt_metacal
$LN2@qt_metacal:
; Line 115
	cmp	DWORD PTR __c$[ebp], 0
	jne	SHORT $LN3@qt_metacal
; Line 116
	cmp	DWORD PTR __id$[ebp], 4
	jge	SHORT $LN5@qt_metacal
; Line 117
	mov	eax, DWORD PTR __a$[ebp]
	push	eax
	mov	ecx, DWORD PTR __id$[ebp]
	push	ecx
	mov	edx, DWORD PTR __c$[ebp]
	push	edx
	mov	eax, DWORD PTR _this$[ebp]
	push	eax
	call	?qt_static_metacall@qtres2dox@@CAXPAVQObject@@W4Call@QMetaObject@@HPAPAX@Z ; qtres2dox::qt_static_metacall
	add	esp, 16					; 00000010H
$LN5@qt_metacal:
; Line 118
	mov	ecx, DWORD PTR __id$[ebp]
	sub	ecx, 4
	mov	DWORD PTR __id$[ebp], ecx
	jmp	SHORT $LN4@qt_metacal
$LN3@qt_metacal:
; Line 119
	cmp	DWORD PTR __c$[ebp], 12			; 0000000cH
	jne	SHORT $LN4@qt_metacal
; Line 120
	cmp	DWORD PTR __id$[ebp], 4
	jge	SHORT $LN7@qt_metacal
; Line 121
	mov	edx, 4
	imul	eax, edx, 0
	mov	ecx, DWORD PTR __a$[ebp]
	mov	edx, DWORD PTR [ecx+eax]
	mov	DWORD PTR [edx], -1
$LN7@qt_metacal:
; Line 122
	mov	eax, DWORD PTR __id$[ebp]
	sub	eax, 4
	mov	DWORD PTR __id$[ebp], eax
$LN4@qt_metacal:
; Line 124
	mov	eax, DWORD PTR __id$[ebp]
$LN1@qt_metacal:
; Line 125
	mov	esp, ebp
	pop	ebp
	ret	12					; 0000000cH
?qt_metacall@qtres2dox@@UAEHW4Call@QMetaObject@@HPAPAX@Z ENDP ; qtres2dox::qt_metacall
_TEXT	ENDS
; Function compile flags: /Odtp
_TEXT	SEGMENT
_this$ = -4						; size = 4
__clname$ = 8						; size = 4
?qt_metacast@qtres2dox@@UAEPAXPBD@Z PROC		; qtres2dox::qt_metacast
; _this$ = ecx
; File d:\visualstudio_projects\qtres2dox\qtres2dox\generatedfiles\debug\moc_qtres2dox.cpp
; Line 103
	push	ebp
	mov	ebp, esp
	push	ecx
	mov	DWORD PTR _this$[ebp], ecx
; Line 104
	cmp	DWORD PTR __clname$[ebp], 0
	jne	SHORT $LN2@qt_metacas
	xor	eax, eax
	jmp	SHORT $LN1@qt_metacas
$LN2@qt_metacas:
; Line 105
	push	OFFSET ?qt_meta_stringdata_qtres2dox@@3Uqt_meta_stringdata_qtres2dox_t@@B+96
	mov	eax, DWORD PTR __clname$[ebp]
	push	eax
	call	_strcmp
	add	esp, 8
	test	eax, eax
	jne	SHORT $LN3@qt_metacas
; Line 106
	mov	eax, DWORD PTR _this$[ebp]
	jmp	SHORT $LN1@qt_metacas
$LN3@qt_metacas:
; Line 107
	mov	ecx, DWORD PTR __clname$[ebp]
	push	ecx
	mov	ecx, DWORD PTR _this$[ebp]
	call	DWORD PTR __imp_?qt_metacast@QMainWindow@@UAEPAXPBD@Z
$LN1@qt_metacas:
; Line 108
	mov	esp, ebp
	pop	ebp
	ret	4
?qt_metacast@qtres2dox@@UAEPAXPBD@Z ENDP		; qtres2dox::qt_metacast
_TEXT	ENDS
; Function compile flags: /Odtp
_TEXT	SEGMENT
tv82 = -8						; size = 4
_this$ = -4						; size = 4
?metaObject@qtres2dox@@UBEPBUQMetaObject@@XZ PROC	; qtres2dox::metaObject
; _this$ = ecx
; File d:\visualstudio_projects\qtres2dox\qtres2dox\generatedfiles\debug\moc_qtres2dox.cpp
; Line 98
	push	ebp
	mov	ebp, esp
	sub	esp, 8
	mov	DWORD PTR _this$[ebp], ecx
; Line 99
	mov	ecx, DWORD PTR _this$[ebp]
	add	ecx, 4
	call	??C?$QScopedPointer@VQObjectData@@U?$QScopedPointerDeleter@VQObjectData@@@@@@QBEPAVQObjectData@@XZ ; QScopedPointer<QObjectData,QScopedPointerDeleter<QObjectData> >::operator->
	cmp	DWORD PTR [eax+24], 0
	je	SHORT $LN3@metaObject
	mov	ecx, DWORD PTR _this$[ebp]
	add	ecx, 4
	call	??C?$QScopedPointer@VQObjectData@@U?$QScopedPointerDeleter@VQObjectData@@@@@@QBEPAVQObjectData@@XZ ; QScopedPointer<QObjectData,QScopedPointerDeleter<QObjectData> >::operator->
	mov	ecx, eax
	call	DWORD PTR __imp_?dynamicMetaObject@QObjectData@@QBEPAUQMetaObject@@XZ
	mov	DWORD PTR tv82[ebp], eax
	jmp	SHORT $LN4@metaObject
$LN3@metaObject:
	mov	DWORD PTR tv82[ebp], OFFSET ?staticMetaObject@qtres2dox@@2UQMetaObject@@B ; qtres2dox::staticMetaObject
$LN4@metaObject:
	mov	eax, DWORD PTR tv82[ebp]
; Line 100
	mov	esp, ebp
	pop	ebp
	ret	0
?metaObject@qtres2dox@@UBEPBUQMetaObject@@XZ ENDP	; qtres2dox::metaObject
_TEXT	ENDS
; Function compile flags: /Odtp
;	COMDAT ??C?$QScopedPointer@VQObjectData@@U?$QScopedPointerDeleter@VQObjectData@@@@@@QBEPAVQObjectData@@XZ
_TEXT	SEGMENT
_this$ = -4						; size = 4
??C?$QScopedPointer@VQObjectData@@U?$QScopedPointerDeleter@VQObjectData@@@@@@QBEPAVQObjectData@@XZ PROC ; QScopedPointer<QObjectData,QScopedPointerDeleter<QObjectData> >::operator->, COMDAT
; _this$ = ecx
; File c:\qt\5_9_3_vs2015\include\qtcore\qscopedpointer.h
; Line 117
	push	ebp
	mov	ebp, esp
	push	ecx
	mov	DWORD PTR _this$[ebp], ecx
; Line 118
	mov	eax, DWORD PTR _this$[ebp]
	mov	eax, DWORD PTR [eax]
; Line 119
	mov	esp, ebp
	pop	ebp
	ret	0
??C?$QScopedPointer@VQObjectData@@U?$QScopedPointerDeleter@VQObjectData@@@@@@QBEPAVQObjectData@@XZ ENDP ; QScopedPointer<QObjectData,QScopedPointerDeleter<QObjectData> >::operator->
_TEXT	ENDS
; Function compile flags: /Odtp
;	COMDAT ?__empty_global_delete@@YAXPAXI@Z
_TEXT	SEGMENT
___formal$ = 8						; size = 4
___formal$ = 12						; size = 4
?__empty_global_delete@@YAXPAXI@Z PROC			; __empty_global_delete, COMDAT
; File d:\visualstudio_projects\qtres2dox\qtres2dox\generatedfiles\debug\moc_qtres2dox.cpp
; Line 128
	push	ebp
	mov	ebp, esp
	pop	ebp
	ret	0
?__empty_global_delete@@YAXPAXI@Z ENDP			; __empty_global_delete
_TEXT	ENDS
; Function compile flags: /Odtp
;	COMDAT ?__empty_global_delete@@YAXPAX@Z
_TEXT	SEGMENT
___formal$ = 8						; size = 4
?__empty_global_delete@@YAXPAX@Z PROC			; __empty_global_delete, COMDAT
; File d:\visualstudio_projects\qtres2dox\qtres2dox\generatedfiles\debug\moc_qtres2dox.cpp
; Line 128
	push	ebp
	mov	ebp, esp
	pop	ebp
	ret	0
?__empty_global_delete@@YAXPAX@Z ENDP			; __empty_global_delete
_TEXT	ENDS
END
